(dp0
S'Monterrey'
p1
(iGeography
Landmark
p2
(dp3
S'country'
p4
S'MEXICO'
p5
sS'coords'
p6
(iGeography
Coords
p7
(dp8
S'lat'
p9
F25.666666666666668
sS'long'
p10
F-100.3
sbsS'name'
p11
g1
sbsS'Kinshasa'
p12
(iGeography
Landmark
p13
(dp14
g4
S'ZAIRE'
p15
sg6
(iGeography
Coords
p16
(dp17
g9
F-4.333333333333333
sg10
F15.300000000000001
sbsg11
g12
sbsS'Kiev'
p18
(iGeography
Landmark
p19
(dp20
g4
S'RUSSIA'
p21
sg6
(iGeography
Coords
p22
(dp23
g9
F50.450000000000003
sg10
F30.5
sbsg11
g18
sbsS'Madras'
p24
(iGeography
Landmark
p25
(dp26
g4
S'INDIA'
p27
sg6
(iGeography
Coords
p28
(dp29
g9
F13.066666666666666
sg10
F80.25
sbsg11
g24
sbsS'Paris'
p30
(iGeography
Landmark
p31
(dp32
g4
S'FRANCE'
p33
sg6
(iGeography
Coords
p34
(dp35
g9
F48.81666666666667
sg10
F2.4833333333333334
sbsg11
g30
sbsS'Oslo'
p36
(iGeography
Landmark
p37
(dp38
g4
S'NORWAY'
p39
sg6
(iGeography
Coords
p40
(dp41
g9
F59.93333333333333
sg10
F10.733333333333333
sbsg11
g36
sbsS'Alma Ata'
p42
(iGeography
Landmark
p43
(dp44
g4
g21
sg6
(iGeography
Coords
p45
(dp46
g9
F43.233333333333334
sg10
F76.88333333333334
sbsg11
g42
sbsS'Johannesburg'
p47
(iGeography
Landmark
p48
(dp49
g4
S'SOUTH AFRICA'
p50
sg6
(iGeography
Coords
p51
(dp52
g9
F-26.183333333333334
sg10
F28.050000000000001
sbsg11
g47
sbsS'Fortaleza'
p53
(iGeography
Landmark
p54
(dp55
g4
S'BRAZIL'
p56
sg6
(iGeography
Coords
p57
(dp58
g9
F-3.7666666666666666
sg10
F-38.549999999999997
sbsg11
g53
sbsS'Perth'
p59
(iGeography
Landmark
p60
(dp61
g4
S'AUSTRALIA'
p62
sg6
(iGeography
Coords
p63
(dp64
g9
F-31.949999999999999
sg10
F115.84999999999999
sbsg11
g59
sbsS'Tel Aviv'
p65
(iGeography
Landmark
p66
(dp67
g4
S'ISRAEL'
p68
sg6
(iGeography
Coords
p69
(dp70
g9
F32.100000000000001
sg10
F34.783333333333331
sbsg11
g65
sbsS'Sao Paulo'
p71
(iGeography
Landmark
p72
(dp73
g4
g56
sg6
(iGeography
Coords
p74
(dp75
g9
F-23.550000000000001
sg10
F-46.633333333333333
sbsg11
g71
sbsS'Dhahran'
p76
(iGeography
Landmark
p77
(dp78
g4
S'SAUDI ARABIA'
p79
sg6
(iGeography
Coords
p80
(dp81
g9
F26.283333333333335
sg10
F50.149999999999999
sbsg11
g76
sbsS'Tegucigalpa'
p82
(iGeography
Landmark
p83
(dp84
g4
S'HONDURAS'
p85
sg6
(iGeography
Coords
p86
(dp87
g9
F14.1
sg10
F-87.216666666666669
sbsg11
g82
sbsS'Santiago'
p88
(iGeography
Landmark
p89
(dp90
g4
S'CHILE'
p91
sg6
(iGeography
Coords
p92
(dp93
g9
F-33.450000000000003
sg10
F-70.700000000000003
sbsg11
g88
sbsS'Ankara'
p94
(iGeography
Landmark
p95
(dp96
g4
S'TURKEY'
p97
sg6
(iGeography
Coords
p98
(dp99
g9
F39.950000000000003
sg10
F32.883333333333333
sbsg11
g94
sbsS'Nukualofa'
p100
(iGeography
Landmark
p101
(dp102
g4
S'TONGA'
p103
sg6
(iGeography
Coords
p104
(dp105
g9
F-21.133333333333333
sg10
F-175.19999999999999
sbsg11
g100
sbsS'Port of Spain'
p106
(iGeography
Landmark
p107
(dp108
g4
S'TRINIDAD'
p109
sg6
(iGeography
Coords
p110
(dp111
g9
F10.666666666666666
sg10
F-61.516666666666666
sbsg11
g106
sbsS'Kindley AFB'
p112
(iGeography
Landmark
p113
(dp114
g4
S'BERMUDA'
p115
sg6
(iGeography
Coords
p116
(dp117
g9
F33.366666666666667
sg10
F-64.683333333333337
sbsg11
g112
sbsS'Maracaibo'
p118
(iGeography
Landmark
p119
(dp120
g4
S'VENEZUELA'
p121
sg6
(iGeography
Coords
p122
(dp123
g9
F10.65
sg10
F-71.599999999999994
sbsg11
g118
sbsS'Hamburg'
p124
(iGeography
Landmark
p125
(dp126
g4
S'GERMANY'
p127
sg6
(iGeography
Coords
p128
(dp129
g9
F53.549999999999997
sg10
F9.9666666666666668
sbsg11
g124
sbsS'Guantanamo Bay'
p130
(iGeography
Landmark
p131
(dp132
g4
S'CUBA'
p133
sg6
(iGeography
Coords
p134
(dp135
g9
F19.899999999999999
sg10
F-75.150000000000006
sbsg11
g130
sbsS'Brussels'
p136
(iGeography
Landmark
p137
(dp138
g4
S'BELGIUM'
p139
sg6
(iGeography
Coords
p140
(dp141
g9
F50.799999999999997
sg10
F4.3499999999999996
sbsg11
g136
sbsS'Nantes'
p142
(iGeography
Landmark
p143
(dp144
g4
g33
sg6
(iGeography
Coords
p145
(dp146
g9
F47.25
sg10
F-1.5666666666666667
sbsg11
g142
sbsS'Fukuoka'
p147
(iGeography
Landmark
p148
(dp149
g4
S'JAPAN'
p150
sg6
(iGeography
Coords
p151
(dp152
g9
F33.583333333333336
sg10
F130.44999999999999
sbsg11
g147
sbsS'Addis Ababa'
p153
(iGeography
Landmark
p154
(dp155
g4
S'ETHIOPIA'
p156
sg6
(iGeography
Coords
p157
(dp158
g9
F90.033333333333331
sg10
F38.75
sbsg11
g153
sbsS'Manokwari'
p159
(iGeography
Landmark
p160
(dp161
g4
S'IRIAN BARAT'
p162
sg6
(iGeography
Coords
p163
(dp164
g9
F-0.8666666666666667
sg10
F134.08333333333334
sbsg11
g159
sbsS'Kharkov'
p165
(iGeography
Landmark
p166
(dp167
g4
g21
sg6
(iGeography
Coords
p168
(dp169
g9
F50.0
sg10
F36.233333333333334
sbsg11
g165
sbsS'Colombo'
p170
(iGeography
Landmark
p171
(dp172
g4
S'SRI LANKA'
p173
sg6
(iGeography
Coords
p174
(dp175
g9
F6.9000000000000004
sg10
F79.86666666666666
sbsg11
g170
sbsS'Chittagong'
p176
(iGeography
Landmark
p177
(dp178
g4
S'BANGLADESH'
p179
sg6
(iGeography
Coords
p180
(dp181
g9
F22.350000000000001
sg10
F91.833333333333329
sbsg11
g176
sbsS'Dublin'
p182
(iGeography
Landmark
p183
(dp184
g4
S'IRELAND'
p185
sg6
(iGeography
Coords
p186
(dp187
g9
F53.366666666666667
sg10
F-6.3499999999999996
sbsg11
g182
sbsS'Nagpur'
p188
(iGeography
Landmark
p189
(dp190
g4
g27
sg6
(iGeography
Coords
p191
(dp192
g9
F21.149999999999999
sg10
F79.11666666666666
sbsg11
g188
sbsS'Phnom Penh'
p193
(iGeography
Landmark
p194
(dp195
g4
S'CAMBODIA'
p196
sg6
(iGeography
Coords
p197
(dp198
g9
F11.550000000000001
sg10
F104.84999999999999
sbsg11
g193
sbsS'Rome'
p199
(iGeography
Landmark
p200
(dp201
g4
S'ITALY'
p202
sg6
(iGeography
Coords
p203
(dp204
g9
F41.799999999999997
sg10
F12.6
sbsg11
g199
sbsS'Accra'
p205
(iGeography
Landmark
p206
(dp207
g4
S'GHANA'
p208
sg6
(iGeography
Coords
p209
(dp210
g9
F5.5499999999999998
sg10
F-0.20000000000000001
sbsg11
g205
sbsS'Christchurch'
p211
(iGeography
Landmark
p212
(dp213
g4
S'NEW ZEALAND'
p214
sg6
(iGeography
Coords
p215
(dp216
g9
F-43.533333333333331
sg10
F172.61666666666667
sbsg11
g211
sbsS'Ho Chi Minh City'
p217
(iGeography
Landmark
p218
(dp219
g4
S'VIETNAM'
p220
sg6
(iGeography
Coords
p221
(dp222
g9
F10.783333333333333
sg10
F106.7
sbsg11
g217
sbsS'Dar es Salaam'
p223
(iGeography
Landmark
p224
(dp225
g4
S'TANZANIA'
p226
sg6
(iGeography
Coords
p227
(dp228
g9
F-6.833333333333333
sg10
F39.299999999999997
sbsg11
g223
sbsS'Mogadishu'
p229
(iGeography
Landmark
p230
(dp231
g4
S'SOMALIA'
p232
sg6
(iGeography
Coords
p233
(dp234
g9
F2.0333333333333332
sg10
F49.31666666666667
sbsg11
g229
sbsS'Palembang'
p235
(iGeography
Landmark
p236
(dp237
g4
S'INDONESIA'
p238
sg6
(iGeography
Coords
p239
(dp240
g9
F-3.0
sg10
F104.76666666666667
sbsg11
g235
sbsS'Taipei'
p241
(iGeography
Landmark
p242
(dp243
g4
S'TAIWAN'
p244
sg6
(iGeography
Coords
p245
(dp246
g9
F25.033333333333335
sg10
F121.51666666666667
sbsg11
g241
sbsS'Mannheim'
p247
(iGeography
Landmark
p248
(dp249
g4
g127
sg6
(iGeography
Coords
p250
(dp251
g9
F49.56666666666667
sg10
F8.4666666666666668
sbsg11
g247
sbsS'Vila'
p252
(iGeography
Landmark
p253
(dp254
g4
S'VANUATU'
p255
sg6
(iGeography
Coords
p256
(dp257
g9
F-17.733333333333334
sg10
F168.31666666666666
sbsg11
g252
sbsS'Ulaanbaatar'
p258
(iGeography
Landmark
p259
(dp260
g4
S'MONGOLIA'
p261
sg6
(iGeography
Coords
p262
(dp263
g9
F47.916666666666664
sg10
F106.88333333333334
sbsg11
g258
sbsS'Casablanca'
p264
(iGeography
Landmark
p265
(dp266
g4
S'MOROCCO'
p267
sg6
(iGeography
Coords
p268
(dp269
g9
F33.583333333333336
sg10
F-7.6500000000000004
sbsg11
g264
sbsS'Brazzaville'
p270
(iGeography
Landmark
p271
(dp272
g4
S'CONGO'
p273
sg6
(iGeography
Coords
p274
(dp275
g9
F-4.25
sg10
F15.25
sbsg11
g270
sbsS'Brisbane'
p276
(iGeography
Landmark
p277
(dp278
g4
g62
sg6
(iGeography
Coords
p279
(dp280
g9
F-27.466666666666665
sg10
F153.03333333333333
sbsg11
g276
sbsS'Cairo'
p281
(iGeography
Landmark
p282
(dp283
g4
S'EGYPT'
p284
sg6
(iGeography
Coords
p285
(dp286
g9
F29.866666666666667
sg10
F31.333333333333332
sbsg11
g281
sbsS'Adana'
p287
(iGeography
Landmark
p288
(dp289
g4
g97
sg6
(iGeography
Coords
p290
(dp291
g9
F36.983333333333334
sg10
F35.299999999999997
sbsg11
g287
sbsS'Abidjan'
p292
(iGeography
Landmark
p293
(dp294
g4
S'IVORY COAST'
p295
sg6
(iGeography
Coords
p296
(dp297
g9
F5.3166666666666664
sg10
F-4.0166666666666666
sbsg11
g292
sbsS'Milan'
p298
(iGeography
Landmark
p299
(dp300
g4
g202
sg6
(iGeography
Coords
p301
(dp302
g9
F45.450000000000003
sg10
F9.2833333333333332
sbsg11
g298
sbsS'London'
p303
(iGeography
Landmark
p304
(dp305
g4
S'UNITED KINGDOM'
p306
sg6
(iGeography
Coords
p307
(dp308
g9
F51.483333333333334
sg10
F-0.0
sbsg11
g303
sbsS'Shannon'
p309
(iGeography
Landmark
p310
(dp311
g4
g185
sg6
(iGeography
Coords
p312
(dp313
g9
F52.68333333333333
sg10
F-8.9166666666666661
sbsg11
g309
sbsS'Penang'
p314
(iGeography
Landmark
p315
(dp316
g4
S'MALAYSIA'
p317
sg6
(iGeography
Coords
p318
(dp319
g9
F5.416666666666667
sg10
F100.31666666666666
sbsg11
g314
sbsS'Paramaribo'
p320
(iGeography
Landmark
p321
(dp322
g4
S'SURINAM'
p323
sg6
(iGeography
Coords
p324
(dp325
g9
F5.8166666666666664
sg10
F-55.149999999999999
sbsg11
g320
sbsS'Kuibyshev'
p326
(iGeography
Landmark
p327
(dp328
g4
g21
sg6
(iGeography
Coords
p329
(dp330
g9
F53.18333333333333
sg10
F50.100000000000001
sbsg11
g326
sbsS'Bombay'
p331
(iGeography
Landmark
p332
(dp333
g4
g27
sg6
(iGeography
Coords
p334
(dp335
g9
F18.899999999999999
sg10
F72.816666666666663
sbsg11
g331
sbsS'Abadan'
p336
(iGeography
Landmark
p337
(dp338
g4
S'IRAN'
p339
sg6
(iGeography
Coords
p340
(dp341
g9
F30.350000000000001
sg10
F48.266666666666666
sbsg11
g336
sbsS'Ahmenabad'
p342
(iGeography
Landmark
p343
(dp344
g4
g27
sg6
(iGeography
Coords
p345
(dp346
g9
F23.033333333333335
sg10
F72.583333333333329
sbsg11
g342
sbsS'San Juan'
p347
(iGeography
Landmark
p348
(dp349
g4
S'PUERTO RICO'
p350
sg6
(iGeography
Coords
p351
(dp352
g9
F18.483333333333334
sg10
F-66.11666666666666
sbsg11
g347
sbsS'Vladivostok'
p353
(iGeography
Landmark
p354
(dp355
g4
g21
sg6
(iGeography
Coords
p356
(dp357
g9
F43.116666666666667
sg10
F131.91666666666666
sbsg11
g353
sbsS'Manila'
p358
(iGeography
Landmark
p359
(dp360
g4
S'PHILIPPINES'
p361
sg6
(iGeography
Coords
p362
(dp363
g9
F14.583333333333334
sg10
F120.98333333333333
sbsg11
g358
sbsS'Strasbourg'
p364
(iGeography
Landmark
p365
(dp366
g4
g33
sg6
(iGeography
Coords
p367
(dp368
g9
F48.583333333333336
sg10
F7.7666666666666666
sbsg11
g364
sbsS'Auckland'
p369
(iGeography
Landmark
p370
(dp371
g4
g214
sg6
(iGeography
Coords
p372
(dp373
g9
F-36.850000000000001
sg10
F174.76666666666668
sbsg11
g369
sbsS"N'Djamena"
p374
(iGeography
Landmark
p375
(dp376
g4
S'CHAD'
p377
sg6
(iGeography
Coords
p378
(dp379
g9
F-12.116666666666667
sg10
F15.050000000000001
sbsg11
g374
sbsS'Ouagadougou'
p380
(iGeography
Landmark
p381
(dp382
g4
S'BURKINA FASO'
p383
sg6
(iGeography
Coords
p384
(dp385
g9
F12.366666666666667
sg10
F-1.5166666666666666
sbsg11
g380
sbsS'Tripoli'
p386
(iGeography
Landmark
p387
(dp388
g4
S'LIBYA'
p389
sg6
(iGeography
Coords
p390
(dp391
g9
F32.899999999999999
sg10
F13.183333333333334
sbsg11
g386
sbsS'Damascus'
p392
(iGeography
Landmark
p393
(dp394
g4
S'SYRIA'
p395
sg6
(iGeography
Coords
p396
(dp397
g9
F33.5
sg10
F36.333333333333336
sbsg11
g392
sbsS'Sydney'
p398
(iGeography
Landmark
p399
(dp400
g4
g62
sg6
(iGeography
Coords
p401
(dp402
g9
F-33.866666666666667
sg10
F151.19999999999999
sbsg11
g398
sbsS'Amman'
p403
(iGeography
Landmark
p404
(dp405
g4
S'JORDAN'
p406
sg6
(iGeography
Coords
p407
(dp408
g9
F31.949999999999999
sg10
F35.950000000000003
sbsg11
g403
sbsS'Dakar'
p409
(iGeography
Landmark
p410
(dp411
g4
S'SENEGAL'
p412
sg6
(iGeography
Coords
p413
(dp414
g9
F14.699999999999999
sg10
F-17.483333333333334
sbsg11
g409
sbsS'Curitiba'
p415
(iGeography
Landmark
p416
(dp417
g4
g56
sg6
(iGeography
Coords
p418
(dp419
g9
F-25.416666666666668
sg10
F-49.283333333333331
sbsg11
g415
sbsS'Djakarta'
p420
(iGeography
Landmark
p421
(dp422
g4
g238
sg6
(iGeography
Coords
p423
(dp424
g9
F-6.1833333333333336
sg10
F106.83333333333333
sbsg11
g420
sbsS'Vienna'
p425
(iGeography
Landmark
p426
(dp427
g4
S'AUSTRIA'
p428
sg6
(iGeography
Coords
p429
(dp430
g9
F48.25
sg10
F16.366666666666667
sbsg11
g425
sbsS'Edinburgh'
p431
(iGeography
Landmark
p432
(dp433
g4
g306
sg6
(iGeography
Coords
p434
(dp435
g9
F55.916666666666664
sg10
F-3.1833333333333331
sbsg11
g431
sbsS'Beirut'
p436
(iGeography
Landmark
p437
(dp438
g4
S'LEBANON'
p439
sg6
(iGeography
Coords
p440
(dp441
g9
F33.899999999999999
sg10
F35.466666666666669
sbsg11
g436
sbsS'Punta Arenas'
p442
(iGeography
Landmark
p443
(dp444
g4
g91
sg6
(iGeography
Coords
p445
(dp446
g9
F-53.166666666666664
sg10
F-70.900000000000006
sbsg11
g442
sbsS'Quito'
p447
(iGeography
Landmark
p448
(dp449
g4
S'EQUADOR'
p450
sg6
(iGeography
Coords
p451
(dp452
g9
F-0.21666666666666667
sg10
F-78.533333333333331
sbsg11
g447
sbsS'Stockholm'
p453
(iGeography
Landmark
p454
(dp455
g4
S'SWEDEN'
p456
sg6
(iGeography
Coords
p457
(dp458
g9
F59.350000000000001
sg10
F18.066666666666666
sbsg11
g453
sbsS'Cordoba'
p459
(iGeography
Landmark
p460
(dp461
g4
S'ARGENTINA'
p462
sg6
(iGeography
Coords
p463
(dp464
g9
F-31.366666666666667
sg10
F-64.25
sbsg11
g459
sbsS'Moscow'
p465
(iGeography
Landmark
p466
(dp467
g4
g21
sg6
(iGeography
Coords
p468
(dp469
g9
F55.766666666666666
sg10
F37.666666666666664
sbsg11
g465
sbsS'Kuala Lumpur'
p470
(iGeography
Landmark
p471
(dp472
g4
g317
sg6
(iGeography
Coords
p473
(dp474
g9
F3.1166666666666667
sg10
F101.7
sbsg11
g470
sbsS'Berlin'
p475
(iGeography
Landmark
p476
(dp477
g4
g127
sg6
(iGeography
Coords
p478
(dp479
g9
F52.450000000000003
sg10
F13.300000000000001
sbsg11
g475
sbsS'Lisbon'
p480
(iGeography
Landmark
p481
(dp482
g4
S'PORTUGAL'
p483
sg6
(iGeography
Coords
p484
(dp485
g9
F38.716666666666669
sg10
F-9.1333333333333329
sbsg11
g480
sbsS'Tehran'
p486
(iGeography
Landmark
p487
(dp488
g4
g339
sg6
(iGeography
Coords
p489
(dp490
g9
F35.68333333333333
sg10
F51.416666666666664
sbsg11
g486
sbsS'Bangalore'
p491
(iGeography
Landmark
p492
(dp493
g4
g27
sg6
(iGeography
Coords
p494
(dp495
g9
F12.949999999999999
sg10
F77.61666666666666
sbsg11
g491
sbsS'Karachi'
p496
(iGeography
Landmark
p497
(dp498
g4
S'PAKISTAN'
p499
sg6
(iGeography
Coords
p500
(dp501
g9
F24.800000000000001
sg10
F66.983333333333334
sbsg11
g496
sbsS'Singapore'
p502
(iGeography
Landmark
p503
(dp504
g4
S'SINGAPORE'
p505
sg6
(iGeography
Coords
p506
(dp507
g9
F1.3
sg10
F103.83333333333333
sbsg11
g502
sbsS'Kuwait City'
p508
(iGeography
Landmark
p509
(dp510
g4
S'KUWAIT'
p511
sg6
(iGeography
Coords
p512
(dp513
g9
F29.333333333333332
sg10
F47.983333333333334
sbsg11
g508
sbsS'Medellin'
p514
(iGeography
Landmark
p515
(dp516
g4
S'COLOMBIA'
p517
sg6
(iGeography
Coords
p518
(dp519
g9
F6.2166666666666668
sg10
F-75.599999999999994
sbsg11
g514
sbsS'Brasilia'
p520
(iGeography
Landmark
p521
(dp522
g4
g56
sg6
(iGeography
Coords
p523
(dp524
g9
F-15.866666666666667
sg10
F-47.916666666666664
sbsg11
g520
sbsS'Freetown'
p525
(iGeography
Landmark
p526
(dp527
g4
S'SIERRA LEONE'
p528
sg6
(iGeography
Coords
p529
(dp530
g9
F8.5
sg10
F-13.25
sbsg11
g525
sbsS'Cape Town'
p531
(iGeography
Landmark
p532
(dp533
g4
g50
sg6
(iGeography
Coords
p534
(dp535
g9
F-33.93333333333333
sg10
F18.483333333333334
sbsg11
g531
sbsS'Thimbu'
p536
(iGeography
Landmark
p537
(dp538
g4
S'BHUTAN'
p539
sg6
(iGeography
Coords
p540
(dp541
g9
F27.533333333333335
sg10
F89.716666666666669
sbsg11
g536
sbsS'Monrovia'
p542
(iGeography
Landmark
p543
(dp544
g4
S'LIBERIA'
p545
sg6
(iGeography
Coords
p546
(dp547
g9
F6.2999999999999998
sg10
F-10.800000000000001
sbsg11
g542
sbsS'Yaounde'
p548
(iGeography
Landmark
p549
(dp550
g4
S'CAMEROON'
p551
sg6
(iGeography
Coords
p552
(dp553
g9
F3.8666666666666667
sg10
F11.516666666666667
sbsg11
g548
sbsS'Kisangani'
p554
(iGeography
Landmark
p555
(dp556
g4
g15
sg6
(iGeography
Coords
p557
(dp558
g9
F-0.43333333333333335
sg10
F15.233333333333333
sbsg11
g554
sbsS'Belem'
p559
(iGeography
Landmark
p560
(dp561
g4
g56
sg6
(iGeography
Coords
p562
(dp563
g9
F-1.45
sg10
F-48.483333333333334
sbsg11
g559
sbsS'Kathmandu'
p564
(iGeography
Landmark
p565
(dp566
g4
S'NEPAL'
p567
sg6
(iGeography
Coords
p568
(dp569
g9
F27.699999999999999
sg10
F85.200000000000003
sbsg11
g564
sbsS'Panama City'
p570
(iGeography
Landmark
p571
(dp572
g4
S'PANAMA'
p573
sg6
(iGeography
Coords
p574
(dp575
g9
F8.9666666666666668
sg10
F-79.549999999999997
sbsg11
g570
sbsS'Pretoria'
p576
(iGeography
Landmark
p577
(dp578
g4
g50
sg6
(iGeography
Coords
p579
(dp580
g9
F-25.75
sg10
F28.233333333333334
sbsg11
g576
sbsS'Thessaloniki'
p581
(iGeography
Landmark
p582
(dp583
g4
S'GREECE'
p584
sg6
(iGeography
Coords
p585
(dp586
g9
F40.616666666666667
sg10
F22.949999999999999
sbsg11
g581
sbsS'New Delhi'
p587
(iGeography
Landmark
p588
(dp589
g4
g27
sg6
(iGeography
Coords
p590
(dp591
g9
F28.583333333333332
sg10
F77.200000000000003
sbsg11
g587
sbsS'Vera Cruz'
p592
(iGeography
Landmark
p593
(dp594
g4
g5
sg6
(iGeography
Coords
p595
(dp596
g9
F19.199999999999999
sg10
F-96.13333333333334
sbsg11
g592
sbsS'Zurich'
p597
(iGeography
Landmark
p598
(dp599
g4
S'SWITZERLAND'
p600
sg6
(iGeography
Coords
p601
(dp602
g9
F47.383333333333333
sg10
F8.5500000000000007
sbsg11
g597
sbsS'Madrid'
p603
(iGeography
Landmark
p604
(dp605
g4
S'SPAIN'
p606
sg6
(iGeography
Coords
p607
(dp608
g9
F40.416666666666664
sg10
F-3.6833333333333336
sbsg11
g603
sbsS'Guatemala City'
p609
(iGeography
Landmark
p610
(dp611
g4
S'GUATEMALA'
p612
sg6
(iGeography
Coords
p613
(dp614
g9
F14.616666666666667
sg10
F-90.516666666666666
sbsg11
g609
sbsS'Kaliningrad'
p615
(iGeography
Landmark
p616
(dp617
g4
g21
sg6
(iGeography
Coords
p618
(dp619
g9
F54.716666666666669
sg10
F20.5
sbsg11
g615
sbsS'Valparaiso'
p620
(iGeography
Landmark
p621
(dp622
g4
g91
sg6
(iGeography
Coords
p623
(dp624
g9
F-33.016666666666666
sg10
F-71.63333333333334
sbsg11
g620
sbsS'Rio De Janeiro'
p625
(iGeography
Landmark
p626
(dp627
g4
g56
sg6
(iGeography
Coords
p628
(dp629
g9
F-22.916666666666668
sg10
F-43.200000000000003
sbsg11
g625
sbsS'Mosul'
p630
(iGeography
Landmark
p631
(dp632
g4
S'IRAQ'
p633
sg6
(iGeography
Coords
p634
(dp635
g9
F36.31666666666667
sg10
F43.149999999999999
sbsg11
g630
sbsS'Sverdlovsk'
p636
(iGeography
Landmark
p637
(dp638
g4
g21
sg6
(iGeography
Coords
p639
(dp640
g9
F56.81666666666667
sg10
F60.633333333333333
sbsg11
g636
sbsS'Adelaide'
p641
(iGeography
Landmark
p642
(dp643
g4
g62
sg6
(iGeography
Coords
p644
(dp645
g9
F-34.93333333333333
sg10
F138.58333333333334
sbsg11
g641
sbsS'Mexico City'
p646
(iGeography
Landmark
p647
(dp648
g4
g5
sg6
(iGeography
Coords
p649
(dp650
g9
F19.399999999999999
sg10
F-99.200000000000003
sbsg11
g646
sbsS'Lyon'
p651
(iGeography
Landmark
p652
(dp653
g4
g33
sg6
(iGeography
Coords
p654
(dp655
g9
F45.700000000000003
sg10
F4.7833333333333332
sbsg11
g651
sbsS'Belfast'
p656
(iGeography
Landmark
p657
(dp658
g4
g306
sg6
(iGeography
Coords
p659
(dp660
g9
F54.600000000000001
sg10
F-5.916666666666667
sbsg11
g656
sbsS'Merida'
p661
(iGeography
Landmark
p662
(dp663
g4
g5
sg6
(iGeography
Coords
p664
(dp665
g9
F20.966666666666665
sg10
F-89.63333333333334
sbsg11
g661
sbsS'Istanbul'
p666
(iGeography
Landmark
p667
(dp668
g4
g97
sg6
(iGeography
Coords
p669
(dp670
g9
F40.966666666666669
sg10
F28.833333333333332
sbsg11
g666
sbsS'Petropavlovsk'
p671
(iGeography
Landmark
p672
(dp673
g4
g21
sg6
(iGeography
Coords
p674
(dp675
g9
F52.883333333333333
sg10
F158.69999999999999
sbsg11
g671
sbsS'Cayenne'
p676
(iGeography
Landmark
p677
(dp678
g4
S'FRENCH GUIANA'
p679
sg6
(iGeography
Coords
p680
(dp681
g9
F4.9333333333333336
sg10
F-52.450000000000003
sbsg11
g676
sbsS'Surabaya'
p682
(iGeography
Landmark
p683
(dp684
g4
g238
sg6
(iGeography
Coords
p685
(dp686
g9
F-7.2166666666666668
sg10
F112.71666666666667
sbsg11
g682
sbsS'St. Petersburg'
p687
(iGeography
Landmark
p688
(dp689
g4
g21
sg6
(iGeography
Coords
p690
(dp691
g9
F59.93333333333333
sg10
F30.266666666666666
sbsg11
g687
sbsS'Marseilles'
p692
(iGeography
Landmark
p693
(dp694
g4
g33
sg6
(iGeography
Coords
p695
(dp696
g9
F43.299999999999997
sg10
F5.3833333333333337
sbsg11
g692
sbsS'Baranquilla'
p697
(iGeography
Landmark
p698
(dp699
g4
g517
sg6
(iGeography
Coords
p700
(dp701
g9
F10.983333333333333
sg10
F-74.799999999999997
sbsg11
g697
sbsS'Krasnoyarsk'
p702
(iGeography
Landmark
p703
(dp704
g4
g21
sg6
(iGeography
Coords
p705
(dp706
g9
F56.016666666666666
sg10
F92.950000000000003
sbsg11
g702
sbsS'Gibraltar'
p707
(iGeography
Landmark
p708
(dp709
g4
S'GIBRALTAR'
p710
sg6
(iGeography
Coords
p711
(dp712
g9
F36.149999999999999
sg10
F-5.3666666666666663
sbsg11
g707
sbsS'Yangon'
p713
(iGeography
Landmark
p714
(dp715
g4
S'MYANMAR'
p716
sg6
(iGeography
Coords
p717
(dp718
g9
F16.783333333333335
sg10
F96.150000000000006
sbsg11
g713
sbsS'Lahore'
p719
(iGeography
Landmark
p720
(dp721
g4
g499
sg6
(iGeography
Coords
p722
(dp723
g9
F31.583333333333332
sg10
F74.333333333333329
sbsg11
g719
sbsS'Nice'
p724
(iGeography
Landmark
p725
(dp726
g4
g33
sg6
(iGeography
Coords
p727
(dp728
g9
F43.700000000000003
sg10
F7.2666666666666666
sbsg11
g724
sbsS'Fort De France'
p729
(iGeography
Landmark
p730
(dp731
g4
S'MARTINIQUE'
p732
sg6
(iGeography
Coords
p733
(dp734
g9
F14.616666666666667
sg10
F-61.083333333333336
sbsg11
g729
sbsS'Lajes'
p735
(iGeography
Landmark
p736
(dp737
g4
S'AZORES'
p738
sg6
(iGeography
Coords
p739
(dp740
g9
F38.75
sg10
F-27.083333333333332
sbsg11
g735
sbsS'Harare'
p741
(iGeography
Landmark
p742
(dp743
g4
S'ZIMBABWE'
p744
sg6
(iGeography
Coords
p745
(dp746
g9
F-17.833333333333332
sg10
F31.050000000000001
sbsg11
g741
sbsS'Baghdad'
p747
(iGeography
Landmark
p748
(dp749
g4
g633
sg6
(iGeography
Coords
p750
(dp751
g9
F33.333333333333336
sg10
F44.399999999999999
sbsg11
g747
sbsS'Belize'
p752
(iGeography
Landmark
p753
(dp754
g4
S'BELIZE'
p755
sg6
(iGeography
Coords
p756
(dp757
g9
F17.516666666666666
sg10
F-88.183333333333337
sbsg11
g752
sbsS'Hong Kong'
p758
(iGeography
Landmark
p759
(dp760
g4
S'HONG KONG'
p761
sg6
(iGeography
Coords
p762
(dp763
g9
F22.300000000000001
sg10
F114.16666666666667
sbsg11
g758
sbsS'Algiers'
p764
(iGeography
Landmark
p765
(dp766
g4
S'ALGERIA'
p767
sg6
(iGeography
Coords
p768
(dp769
g9
F36.766666666666666
sg10
F30.050000000000001
sbsg11
g764
sbsS'Hannover'
p770
(iGeography
Landmark
p771
(dp772
g4
g127
sg6
(iGeography
Coords
p773
(dp774
g9
F52.399999999999999
sg10
F9.6666666666666661
sbsg11
g770
sbsS'Helsinki'
p775
(iGeography
Landmark
p776
(dp777
g4
S'FINLAND'
p778
sg6
(iGeography
Coords
p779
(dp780
g9
F60.166666666666664
sg10
F24.949999999999999
sbsg11
g775
sbsS'Islamabad'
p781
(iGeography
Landmark
p782
(dp783
g4
g499
sg6
(iGeography
Coords
p784
(dp785
g9
F33.700000000000003
sg10
F73.166666666666671
sbsg11
g781
sbsS'Riga'
p786
(iGeography
Landmark
p787
(dp788
g4
S'LATVIA'
p789
sg6
(iGeography
Coords
p790
(dp791
g9
F56.950000000000003
sg10
F24.100000000000001
sbsg11
g786
sbsS'Wellington'
p792
(iGeography
Landmark
p793
(dp794
g4
g214
sg6
(iGeography
Coords
p795
(dp796
g9
F-41.283333333333331
sg10
F174.76666666666668
sbsg11
g792
sbsS'Ottawa'
p797
(iGeography
Landmark
p798
(dp799
g4
S'CANADA'
p800
sg6
(iGeography
Coords
p801
(dp802
g9
F45.31666666666667
sg10
F-75.666666666666671
sbsg11
g797
sbsS'Makassar'
p803
(iGeography
Landmark
p804
(dp805
g4
g238
sg6
(iGeography
Coords
p806
(dp807
g9
F-5.1333333333333337
sg10
F119.46666666666667
sbsg11
g803
sbsS'Krakow'
p808
(iGeography
Landmark
p809
(dp810
g4
S'POLAND'
p811
sg6
(iGeography
Coords
p812
(dp813
g9
F50.06666666666667
sg10
F19.949999999999999
sbsg11
g808
sbsS'Tunis'
p814
(iGeography
Landmark
p815
(dp816
g4
S'TUNISIA'
p817
sg6
(iGeography
Coords
p818
(dp819
g9
F36.783333333333331
sg10
F10.199999999999999
sbsg11
g814
sbsS'Sucre'
p820
(iGeography
Landmark
p821
(dp822
g4
S'BOLIVIA'
p823
sg6
(iGeography
Coords
p824
(dp825
g9
F-19.033333333333335
sg10
F-65.283333333333331
sbsg11
g820
sbsS'Hanoi'
p826
(iGeography
Landmark
p827
(dp828
g4
g220
sg6
(iGeography
Coords
p829
(dp830
g9
F21.033333333333335
sg10
F105.86666666666666
sbsg11
g826
sbsS'Tananarive'
p831
(iGeography
Landmark
p832
(dp833
g4
S'MADAGASCAR'
p834
sg6
(iGeography
Coords
p835
(dp836
g9
F-18.916666666666668
sg10
F47.549999999999997
sbsg11
g831
sbsS'Calcutta'
p837
(iGeography
Landmark
p838
(dp839
g4
g27
sg6
(iGeography
Coords
p840
(dp841
g9
F22.533333333333335
sg10
F88.333333333333329
sbsg11
g837
sbsS'Aden'
p842
(iGeography
Landmark
p843
(dp844
g4
S'YEMEN'
p845
sg6
(iGeography
Coords
p846
(dp847
g9
F12.833333333333334
sg10
F45.033333333333331
sbsg11
g842
sbsS'Nairobi'
p848
(iGeography
Landmark
p849
(dp850
g4
S'KENYA'
p851
sg6
(iGeography
Coords
p852
(dp853
g9
F-1.2666666666666666
sg10
F36.799999999999997
sbsg11
g848
sbsS'Bucharest'
p854
(iGeography
Landmark
p855
(dp856
g4
S'ROMANIA'
p857
sg6
(iGeography
Coords
p858
(dp859
g9
F44.416666666666664
sg10
F26.100000000000001
sbsg11
g854
sbsS'Beijing'
p860
(iGeography
Landmark
p861
(dp862
g4
S'CHINA'
p863
sg6
(iGeography
Coords
p864
(dp865
g9
F39.916666666666664
sg10
F116.43333333333334
sbsg11
g860
sbsS'Meshed'
p866
(iGeography
Landmark
p867
(dp868
g4
g339
sg6
(iGeography
Coords
p869
(dp870
g9
F36.283333333333331
sg10
F59.600000000000001
sbsg11
g866
sbsS'Reykjavik'
p871
(iGeography
Landmark
p872
(dp873
g4
S'ICELAND'
p874
sg6
(iGeography
Coords
p875
(dp876
g9
F64.13333333333334
sg10
F21.933333333333334
sbsg11
g871
sbsS'Rostov on Don'
p877
(iGeography
Landmark
p878
(dp879
g4
g21
sg6
(iGeography
Coords
p880
(dp881
g9
F47.216666666666669
sg10
F39.716666666666669
sbsg11
g877
sbsS'Birmingham'
p882
(iGeography
Landmark
p883
(dp884
g4
g306
sg6
(iGeography
Coords
p885
(dp886
g9
F52.483333333333334
sg10
F-1.9333333333333333
sbsg11
g882
sbsS'Jedda'
p887
(iGeography
Landmark
p888
(dp889
g4
g79
sg6
(iGeography
Coords
p890
(dp891
g9
F21.466666666666665
sg10
F39.166666666666664
sbsg11
g887
sbsS'Asmara'
p892
(iGeography
Landmark
p893
(dp894
g4
g156
sg6
(iGeography
Coords
p895
(dp896
g9
F15.283333333333333
sg10
F38.916666666666664
sbsg11
g892
sbsS'Volgograd'
p897
(iGeography
Landmark
p898
(dp899
g4
g21
sg6
(iGeography
Coords
p900
(dp901
g9
F48.700000000000003
sg10
F44.516666666666666
sbsg11
g897
sbsS'Da Nang'
p902
(iGeography
Landmark
p903
(dp904
g4
g220
sg6
(iGeography
Coords
p905
(dp906
g9
F16.066666666666666
sg10
F108.21666666666667
sbsg11
g902
sbsS'Lima'
p907
(iGeography
Landmark
p908
(dp909
g4
S'PERU'
p910
sg6
(iGeography
Coords
p911
(dp912
g9
F-12.083333333333334
sg10
F-77.049999999999997
sbsg11
g907
sbsS'Ascuncion'
p913
(iGeography
Landmark
p914
(dp915
g4
S'PARAGUAY'
p916
sg6
(iGeography
Coords
p917
(dp918
g9
F-25.283333333333335
sg10
F-57.5
sbsg11
g913
sbsS'Bergen'
p919
(iGeography
Landmark
p920
(dp921
g4
g39
sg6
(iGeography
Coords
p922
(dp923
g9
F60.399999999999999
sg10
F5.3166666666666664
sbsg11
g919
sbsS'Belo Horizonte'
p924
(iGeography
Landmark
p925
(dp926
g4
g56
sg6
(iGeography
Coords
p927
(dp928
g9
F-19.933333333333334
sg10
F-43.950000000000003
sbsg11
g924
sbsS'Kupang'
p929
(iGeography
Landmark
p930
(dp931
g4
g238
sg6
(iGeography
Coords
p932
(dp933
g9
F-10.166666666666666
sg10
F123.56666666666666
sbsg11
g929
sbsS'Mandalay'
p934
(iGeography
Landmark
p935
(dp936
g4
g716
sg6
(iGeography
Coords
p937
(dp938
g9
F21.983333333333334
sg10
F96.099999999999994
sbsg11
g934
sbsS'Shanghai'
p939
(iGeography
Landmark
p940
(dp941
g4
g863
sg6
(iGeography
Coords
p942
(dp943
g9
F31.199999999999999
sg10
F121.43333333333334
sbsg11
g939
sbsS'San Salvador'
p944
(iGeography
Landmark
p945
(dp946
g4
S'EL SALVADOR'
p947
sg6
(iGeography
Coords
p948
(dp949
g9
F13.699999999999999
sg10
F-89.216666666666669
sbsg11
g944
sbsS'Athens'
p950
(iGeography
Landmark
p951
(dp952
g4
g584
sg6
(iGeography
Coords
p953
(dp954
g9
F37.966666666666669
sg10
F23.716666666666665
sbsg11
g950
sbsS'Kabul'
p955
(iGeography
Landmark
p956
(dp957
g4
S'AFGHANISTAN'
p958
sg6
(iGeography
Coords
p959
(dp960
g9
F34.583333333333336
sg10
F69.200000000000003
sbsg11
g955
sbsS'Cali'
p961
(iGeography
Landmark
p962
(dp963
g4
g517
sg6
(iGeography
Coords
p964
(dp965
g9
F3.4166666666666665
sg10
F-76.5
sbsg11
g961
sbsS'Port Moresby'
p966
(iGeography
Landmark
p967
(dp968
g4
S'PAPUA NEW GUINEA'
p969
sg6
(iGeography
Coords
p970
(dp971
g9
F-9.4833333333333325
sg10
F147.15000000000001
sbsg11
g966
sbsS'Havana'
p972
(iGeography
Landmark
p973
(dp974
g4
g133
sg6
(iGeography
Coords
p975
(dp976
g9
F23.133333333333333
sg10
F-82.349999999999994
sbsg11
g972
sbsS'Porto Alegre'
p977
(iGeography
Landmark
p978
(dp979
g4
g56
sg6
(iGeography
Coords
p980
(dp981
g9
F-30.033333333333335
sg10
F-51.216666666666669
sbsg11
g977
sbsS'Valencia'
p982
(iGeography
Landmark
p983
(dp984
g4
g606
sg6
(iGeography
Coords
p985
(dp986
g9
F39.466666666666669
sg10
F-0.38333333333333336
sbsg11
g982
sbsS'Darwin'
p987
(iGeography
Landmark
p988
(dp989
g4
g62
sg6
(iGeography
Coords
p990
(dp991
g9
F-12.466666666666667
sg10
F130.84999999999999
sbsg11
g987
sbsS'Naples'
p992
(iGeography
Landmark
p993
(dp994
g4
g202
sg6
(iGeography
Coords
p995
(dp996
g9
F40.883333333333333
sg10
F14.300000000000001
sbsg11
g992
sbsS'Port Au Prince'
p997
(iGeography
Landmark
p998
(dp999
g4
S'HAITI'
p1000
sg6
(iGeography
Coords
p1001
(dp1002
g9
F18.550000000000001
sg10
F-72.333333333333329
sbsg11
g997
sbsS'Odessa'
p1003
(iGeography
Landmark
p1004
(dp1005
g4
g21
sg6
(iGeography
Coords
p1006
(dp1007
g9
F46.483333333333334
sg10
F30.733333333333334
sbsg11
g1003
sbsS'Benghazi'
p1008
(iGeography
Landmark
p1009
(dp1010
g4
g389
sg6
(iGeography
Coords
p1011
(dp1012
g9
F32.100000000000001
sg10
F20.066666666666666
sbsg11
g1008
sbsS'Georgetown'
p1013
(iGeography
Landmark
p1014
(dp1015
g4
S'GUYANA'
p1016
sg6
(iGeography
Coords
p1017
(dp1018
g9
F6.833333333333333
sg10
F-58.200000000000003
sbsg11
g1013
sbsS'Archangel'
p1019
(iGeography
Landmark
p1020
(dp1021
g4
g21
sg6
(iGeography
Coords
p1022
(dp1023
g9
F64.549999999999997
sg10
F40.533333333333331
sbsg11
g1019
sbsS'Tashkent'
p1024
(iGeography
Landmark
p1025
(dp1026
g4
g21
sg6
(iGeography
Coords
p1027
(dp1028
g9
F41.333333333333336
sg10
F69.299999999999997
sbsg11
g1024
sbsS'Tokyo'
p1029
(iGeography
Landmark
p1030
(dp1031
g4
g150
sg6
(iGeography
Coords
p1032
(dp1033
g9
F35.68333333333333
sg10
F139.76666666666668
sbsg11
g1029
sbsS'Buenos Aires'
p1034
(iGeography
Landmark
p1035
(dp1036
g4
g462
sg6
(iGeography
Coords
p1037
(dp1038
g9
F-34.583333333333336
sg10
F-58.483333333333334
sbsg11
g1034
sbsS'Munich'
p1039
(iGeography
Landmark
p1040
(dp1041
g4
g127
sg6
(iGeography
Coords
p1042
(dp1043
g9
F48.149999999999999
sg10
F11.566666666666666
sbsg11
g1039
sbsS'Glasgow'
p1044
(iGeography
Landmark
p1045
(dp1046
g4
g306
sg6
(iGeography
Coords
p1047
(dp1048
g9
F55.866666666666667
sg10
F-4.2833333333333332
sbsg11
g1044
sbsS'Bangkok'
p1049
(iGeography
Landmark
p1050
(dp1051
g4
S'THAILAND'
p1052
sg6
(iGeography
Coords
p1053
(dp1054
g9
F13.733333333333333
sg10
F100.5
sbsg11
g1049
sbsS'Montevideo'
p1055
(iGeography
Landmark
p1056
(dp1057
g4
S'URUGUAY'
p1058
sg6
(iGeography
Coords
p1059
(dp1060
g9
F-34.850000000000001
sg10
F-56.216666666666669
sbsg11
g1055
sbsS'Khartoum'
p1061
(iGeography
Landmark
p1062
(dp1063
g4
S'SUDAN'
p1064
sg6
(iGeography
Coords
p1065
(dp1066
g9
F15.616666666666667
sg10
F32.549999999999997
sbsg11
g1061
sbsS'Nassau'
p1067
(iGeography
Landmark
p1068
(dp1069
g4
S'BAHAMAS'
p1070
sg6
(iGeography
Coords
p1071
(dp1072
g9
F25.083333333333332
sg10
F-77.349999999999994
sbsg11
g1067
sbsS'Guayaquil'
p1073
(iGeography
Landmark
p1074
(dp1075
g4
g450
sg6
(iGeography
Coords
p1076
(dp1077
g9
F-2.2000000000000002
sg10
F-79.88333333333334
sbsg11
g1073
sbsS'Medan'
p1078
(iGeography
Landmark
p1079
(dp1080
g4
g238
sg6
(iGeography
Coords
p1081
(dp1082
g9
F3.5833333333333335
sg10
F98.683333333333337
sbsg11
g1078
sbsS'Tainan'
p1083
(iGeography
Landmark
p1084
(dp1085
g4
g244
sg6
(iGeography
Coords
p1086
(dp1087
g9
F22.949999999999999
sg10
F120.2
sbsg11
g1083
sbsS'Budapest'
p1088
(iGeography
Landmark
p1089
(dp1090
g4
S'HUNGARY'
p1091
sg6
(iGeography
Coords
p1092
(dp1093
g9
F47.516666666666666
sg10
F19.033333333333335
sbsg11
g1088
sbsS'Tucuman'
p1094
(iGeography
Landmark
p1095
(dp1096
g4
g462
sg6
(iGeography
Coords
p1097
(dp1098
g9
F-26.833333333333332
sg10
F-65.166666666666671
sbsg11
g1094
sbsS'Salvador'
p1099
(iGeography
Landmark
p1100
(dp1101
g4
g56
sg6
(iGeography
Coords
p1102
(dp1103
g9
F-13.0
sg10
F-38.5
sbsg11
g1099
sbsS'Caracas'
p1104
(iGeography
Landmark
p1105
(dp1106
g4
g121
sg6
(iGeography
Coords
p1107
(dp1108
g9
F10.5
sg10
F-66.933333333333337
sbsg11
g1104
sbsS'Alice Springs'
p1109
(iGeography
Landmark
p1110
(dp1111
g4
g62
sg6
(iGeography
Coords
p1112
(dp1113
g9
F-23.800000000000001
sg10
F133.88333333333333
sbsg11
g1109
sbsS'Barcelona'
p1114
(iGeography
Landmark
p1115
(dp1116
g4
g606
sg6
(iGeography
Coords
p1117
(dp1118
g9
F41.399999999999999
sg10
F2.1499999999999999
sbsg11
g1114
sbsS'Peshewar'
p1119
(iGeography
Landmark
p1120
(dp1121
g4
g499
sg6
(iGeography
Coords
p1122
(dp1123
g9
F34.016666666666666
sg10
F71.583333333333329
sbsg11
g1119
sbsS'Melbourne'
p1124
(iGeography
Landmark
p1125
(dp1126
g4
g62
sg6
(iGeography
Coords
p1127
(dp1128
g9
F-37.81666666666667
sg10
F144.96666666666667
sbsg11
g1124
sbsS'Managua'
p1129
(iGeography
Landmark
p1130
(dp1131
g4
S'NICARAGUA'
p1132
sg6
(iGeography
Coords
p1133
(dp1134
g9
F12.166666666666666
sg10
F-86.25
sbsg11
g1129
sbsS'Minsk'
p1135
(iGeography
Landmark
p1136
(dp1137
g4
g21
sg6
(iGeography
Coords
p1138
(dp1139
g9
F53.899999999999999
sg10
F27.550000000000001
sbsg11
g1135
sbsS'Recife'
p1140
(iGeography
Landmark
p1141
(dp1142
g4
g56
sg6
(iGeography
Coords
p1143
(dp1144
g9
F-8.0666666666666664
sg10
F-34.883333333333333
sbsg11
g1140
sbsS'Narsarssuaq'
p1145
(iGeography
Landmark
p1146
(dp1147
g4
S'GREENLAND'
p1148
sg6
(iGeography
Coords
p1149
(dp1150
g9
F61.18333333333333
sg10
F-45.416666666666664
sbsg11
g1145
sbsS'Tbilisi'
p1151
(iGeography
Landmark
p1152
(dp1153
g4
g21
sg6
(iGeography
Coords
p1154
(dp1155
g9
F41.716666666666669
sg10
F44.799999999999997
sbsg11
g1151
sbsS'La Paz'
p1156
(iGeography
Landmark
p1157
(dp1158
g4
g823
sg6
(iGeography
Coords
p1159
(dp1160
g9
F-16.5
sg10
F-68.150000000000006
sbsg11
g1156
sbsS'Seoul'
p1161
(iGeography
Landmark
p1162
(dp1163
g4
S'KOREA'
p1164
sg6
(iGeography
Coords
p1165
(dp1166
g9
F37.56666666666667
sg10
F126.96666666666667
sbsg11
g1161
sbsS'Washington D.C.'
p1167
(iGeography
Landmark
p1168
(dp1169
g4
S'UNITED STATES'
p1170
sg6
(iGeography
Coords
p1171
(dp1172
g9
F38.850000000000001
sg10
F-77.033333333333331
sbsg11
g1167
sbsS'Belgrade'
p1173
(iGeography
Landmark
p1174
(dp1175
g4
S'YUGOSLAVIA'
p1176
sg6
(iGeography
Coords
p1177
(dp1178
g9
F44.799999999999997
sg10
F20.466666666666665
sbsg11
g1173
sbsS'Riyadh'
p1179
(iGeography
Landmark
p1180
(dp1181
g4
g79
sg6
(iGeography
Coords
p1182
(dp1183
g9
F24.649999999999999
sg10
F46.700000000000003
sbsg11
g1179
sbsS'Bogota'
p1184
(iGeography
Landmark
p1185
(dp1186
g4
g517
sg6
(iGeography
Coords
p1187
(dp1188
g9
F4.5999999999999996
sg10
F-74.083333333333329
sbsg11
g1184
sbsS'Prague'
p1189
(iGeography
Landmark
p1190
(dp1191
g4
S'CZECH REPUBLIC'
p1192
sg6
(iGeography
Coords
p1193
(dp1194
g9
F50.083333333333336
sg10
F14.416666666666666
sbsg11
g1189
sbsS'Sofia'
p1195
(iGeography
Landmark
p1196
(dp1197
g4
S'BULGARIA'
p1198
sg6
(iGeography
Coords
p1199
(dp1200
g9
F42.700000000000003
sg10
F23.333333333333332
sbsg11
g1195
sbsS'Santo Domingo'
p1201
(iGeography
Landmark
p1202
(dp1203
g4
S'DOMINICAN REPUBLIC'
p1204
sg6
(iGeography
Coords
p1205
(dp1206
g9
F18.483333333333334
sg10
F-69.900000000000006
sbsg11
g1201
sbsS'Lagos'
p1207
(iGeography
Landmark
p1208
(dp1209
g4
S'NIGERIA'
p1210
sg6
(iGeography
Coords
p1211
(dp1212
g9
F6.4500000000000002
sg10
F3.3999999999999999
sbsg11
g1207
sbsS'Nouakchott'
p1213
(iGeography
Landmark
p1214
(dp1215
g4
S'MAURITANIA'
p1216
sg6
(iGeography
Coords
p1217
(dp1218
g9
F18.100000000000001
sg10
F-15.949999999999999
sbsg11
g1213
sbsS'Izmir'
p1219
(iGeography
Landmark
p1220
(dp1221
g4
g97
sg6
(iGeography
Coords
p1222
(dp1223
g9
F38.43333333333333
sg10
F27.166666666666668
sbsg11
g1219
sbsS'Pyongyang'
p1224
(iGeography
Landmark
p1225
(dp1226
g4
g1164
sg6
(iGeography
Coords
p1227
(dp1228
g9
F39.033333333333331
sg10
F125.68333333333334
sbsg11
g1224
sbsS'Cardiff'
p1229
(iGeography
Landmark
p1230
(dp1231
g4
g306
sg6
(iGeography
Coords
p1232
(dp1233
g9
F51.466666666666669
sg10
F-3.1666666666666665
sbsg11
g1229
sbsS'Amsterdam'
p1234
(iGeography
Landmark
p1235
(dp1236
g4
S'NETHERLANDS'
p1237
sg6
(iGeography
Coords
p1238
(dp1239
g9
F52.383333333333333
sg10
F4.916666666666667
sbsg11
g1234
sbsS'Copenhagen'
p1240
(iGeography
Landmark
p1241
(dp1242
g4
S'DENMARK'
p1243
sg6
(iGeography
Coords
p1244
(dp1245
g9
F55.68333333333333
sg10
F12.550000000000001
sbsg11
g1240
sbsS'Jerusalem'
p1246
(iGeography
Landmark
p1247
(dp1248
g4
g68
sg6
(iGeography
Coords
p1249
(dp1250
g9
F31.783333333333335
sg10
F35.216666666666669
sbsg11
g1246
sbsS'Sapporo'
p1251
(iGeography
Landmark
p1252
(dp1253
g4
g150
sg6
(iGeography
Coords
p1254
(dp1255
g9
F43.06666666666667
sg10
F141.34999999999999
sbsg11
g1251
sbsS'Guadalajara'
p1256
(iGeography
Landmark
p1257
(dp1258
g4
g5
sg6
(iGeography
Coords
p1259
(dp1260
g9
F20.683333333333334
sg10
F-103.33333333333333
sbsg11
g1256
sbsS'Warsaw'
p1261
(iGeography
Landmark
p1262
(dp1263
g4
g811
sg6
(iGeography
Coords
p1264
(dp1265
g9
F52.216666666666669
sg10
F21.033333333333335
sbsg11
g1261
sbs.