(dp0
S'medium'
p1
(lp2
sS'easy'
p3
(lp4
sS'difficult'
p5
(lp6
(iGeography
Landmark
p7
(dp8
S'country'
p9
S'AFGHANISTAN'
p10
sS'coords'
p11
(iGeography
Coords
p12
(dp13
S'lat'
p14
F34.583333333333336
sS'long'
p15
F69.200000000000003
sbsS'name'
p16
S'Kabul'
p17
sS'difficulty'
p18
S'difficult'
p19
sba(iGeography
Landmark
p20
(dp21
g9
S'ALGERIA'
p22
sg11
(iGeography
Coords
p23
(dp24
g14
F36.766666666666666
sg15
F30.050000000000001
sbsg16
S'Algiers'
p25
sg18
S'difficult'
p26
sba(iGeography
Landmark
p27
(dp28
g9
S'ARGENTINA'
p29
sg11
(iGeography
Coords
p30
(dp31
g14
F-34.583333333333336
sg15
F-58.483333333333334
sbsg16
S'Buenos Aires'
p32
sg18
S'difficult'
p33
sba(iGeography
Landmark
p34
(dp35
g9
g29
sg11
(iGeography
Coords
p36
(dp37
g14
F-31.366666666666667
sg15
F-64.25
sbsg16
S'Cordoba'
p38
sg18
S'difficult'
p39
sba(iGeography
Landmark
p40
(dp41
g9
g29
sg11
(iGeography
Coords
p42
(dp43
g14
F-26.833333333333332
sg15
F-65.166666666666671
sbsg16
S'Tucuman'
p44
sg18
S'difficult'
p45
sba(iGeography
Landmark
p46
(dp47
g9
S'AUSTRALIA'
p48
sg11
(iGeography
Coords
p49
(dp50
g14
F-34.93333333333333
sg15
F138.58333333333334
sbsg16
S'Adelaide'
p51
sg18
S'difficult'
p52
sba(iGeography
Landmark
p53
(dp54
g9
g48
sg11
(iGeography
Coords
p55
(dp56
g14
F-23.800000000000001
sg15
F133.88333333333333
sbsg16
S'Alice Springs'
p57
sg18
S'difficult'
p58
sba(iGeography
Landmark
p59
(dp60
g9
g48
sg11
(iGeography
Coords
p61
(dp62
g14
F-27.466666666666665
sg15
F153.03333333333333
sbsg16
S'Brisbane'
p63
sg18
S'difficult'
p64
sba(iGeography
Landmark
p65
(dp66
g9
g48
sg11
(iGeography
Coords
p67
(dp68
g14
F-12.466666666666667
sg15
F130.84999999999999
sbsg16
S'Darwin'
p69
sg18
S'difficult'
p70
sba(iGeography
Landmark
p71
(dp72
g9
g48
sg11
(iGeography
Coords
p73
(dp74
g14
F-37.81666666666667
sg15
F144.96666666666667
sbsg16
S'Melbourne'
p75
sg18
S'difficult'
p76
sba(iGeography
Landmark
p77
(dp78
g9
g48
sg11
(iGeography
Coords
p79
(dp80
g14
F-31.949999999999999
sg15
F115.84999999999999
sbsg16
S'Perth'
p81
sg18
S'difficult'
p82
sba(iGeography
Landmark
p83
(dp84
g9
g48
sg11
(iGeography
Coords
p85
(dp86
g14
F-33.866666666666667
sg15
F151.19999999999999
sbsg16
S'Sydney'
p87
sg18
S'difficult'
p88
sba(iGeography
Landmark
p89
(dp90
g9
S'AUSTRIA'
p91
sg11
(iGeography
Coords
p92
(dp93
g14
F48.25
sg15
F16.366666666666667
sbsg16
S'Vienna'
p94
sg18
S'difficult'
p95
sba(iGeography
Landmark
p96
(dp97
g9
S'AZORES'
p98
sg11
(iGeography
Coords
p99
(dp100
g14
F38.75
sg15
F-27.083333333333332
sbsg16
S'Lajes'
p101
sg18
S'difficult'
p102
sba(iGeography
Landmark
p103
(dp104
g9
S'BAHAMAS'
p105
sg11
(iGeography
Coords
p106
(dp107
g14
F25.083333333333332
sg15
F-77.349999999999994
sbsg16
S'Nassau'
p108
sg18
S'difficult'
p109
sba(iGeography
Landmark
p110
(dp111
g9
S'BANGLADESH'
p112
sg11
(iGeography
Coords
p113
(dp114
g14
F22.350000000000001
sg15
F91.833333333333329
sbsg16
S'Chittagong'
p115
sg18
S'difficult'
p116
sba(iGeography
Landmark
p117
(dp118
g9
S'BELGIUM'
p119
sg11
(iGeography
Coords
p120
(dp121
g14
F50.799999999999997
sg15
F4.3499999999999996
sbsg16
S'Brussels'
p122
sg18
S'difficult'
p123
sba(iGeography
Landmark
p124
(dp125
g9
S'BELIZE'
p126
sg11
(iGeography
Coords
p127
(dp128
g14
F17.516666666666666
sg15
F-88.183333333333337
sbsg16
S'Belize'
p129
sg18
S'difficult'
p130
sba(iGeography
Landmark
p131
(dp132
g9
S'BERMUDA'
p133
sg11
(iGeography
Coords
p134
(dp135
g14
F33.366666666666667
sg15
F-64.683333333333337
sbsg16
S'Kindley AFB'
p136
sg18
S'difficult'
p137
sba(iGeography
Landmark
p138
(dp139
g9
S'BHUTAN'
p140
sg11
(iGeography
Coords
p141
(dp142
g14
F27.533333333333335
sg15
F89.716666666666669
sbsg16
S'Thimbu'
p143
sg18
S'difficult'
p144
sba(iGeography
Landmark
p145
(dp146
g9
S'BOLIVIA'
p147
sg11
(iGeography
Coords
p148
(dp149
g14
F-16.5
sg15
F-68.150000000000006
sbsg16
S'La Paz'
p150
sg18
S'difficult'
p151
sba(iGeography
Landmark
p152
(dp153
g9
g147
sg11
(iGeography
Coords
p154
(dp155
g14
F-19.033333333333335
sg15
F-65.283333333333331
sbsg16
S'Sucre'
p156
sg18
S'difficult'
p157
sba(iGeography
Landmark
p158
(dp159
g9
S'BRAZIL'
p160
sg11
(iGeography
Coords
p161
(dp162
g14
F-1.45
sg15
F-48.483333333333334
sbsg16
S'Belem'
p163
sg18
S'difficult'
p164
sba(iGeography
Landmark
p165
(dp166
g9
g160
sg11
(iGeography
Coords
p167
(dp168
g14
F-19.933333333333334
sg15
F-43.950000000000003
sbsg16
S'Belo Horizonte'
p169
sg18
S'difficult'
p170
sba(iGeography
Landmark
p171
(dp172
g9
g160
sg11
(iGeography
Coords
p173
(dp174
g14
F-15.866666666666667
sg15
F-47.916666666666664
sbsg16
S'Brasilia'
p175
sg18
S'difficult'
p176
sba(iGeography
Landmark
p177
(dp178
g9
g160
sg11
(iGeography
Coords
p179
(dp180
g14
F-25.416666666666668
sg15
F-49.283333333333331
sbsg16
S'Curitiba'
p181
sg18
S'difficult'
p182
sba(iGeography
Landmark
p183
(dp184
g9
g160
sg11
(iGeography
Coords
p185
(dp186
g14
F-3.7666666666666666
sg15
F-38.549999999999997
sbsg16
S'Fortaleza'
p187
sg18
S'difficult'
p188
sba(iGeography
Landmark
p189
(dp190
g9
g160
sg11
(iGeography
Coords
p191
(dp192
g14
F-30.033333333333335
sg15
F-51.216666666666669
sbsg16
S'Porto Alegre'
p193
sg18
S'difficult'
p194
sba(iGeography
Landmark
p195
(dp196
g9
g160
sg11
(iGeography
Coords
p197
(dp198
g14
F-8.0666666666666664
sg15
F-34.883333333333333
sbsg16
S'Recife'
p199
sg18
S'difficult'
p200
sba(iGeography
Landmark
p201
(dp202
g9
g160
sg11
(iGeography
Coords
p203
(dp204
g14
F-22.916666666666668
sg15
F-43.200000000000003
sbsg16
S'Rio De Janeiro'
p205
sg18
S'difficult'
p206
sba(iGeography
Landmark
p207
(dp208
g9
g160
sg11
(iGeography
Coords
p209
(dp210
g14
F-13.0
sg15
F-38.5
sbsg16
S'Salvador'
p211
sg18
S'difficult'
p212
sba(iGeography
Landmark
p213
(dp214
g9
g160
sg11
(iGeography
Coords
p215
(dp216
g14
F-23.550000000000001
sg15
F-46.633333333333333
sbsg16
S'Sao Paulo'
p217
sg18
S'difficult'
p218
sba(iGeography
Landmark
p219
(dp220
g9
S'BULGARIA'
p221
sg11
(iGeography
Coords
p222
(dp223
g14
F42.700000000000003
sg15
F23.333333333333332
sbsg16
S'Sofia'
p224
sg18
S'difficult'
p225
sba(iGeography
Landmark
p226
(dp227
g9
S'BURKINA FASO'
p228
sg11
(iGeography
Coords
p229
(dp230
g14
F12.366666666666667
sg15
F-1.5166666666666666
sbsg16
S'Ouagadougou'
p231
sg18
S'difficult'
p232
sba(iGeography
Landmark
p233
(dp234
g9
S'CAMBODIA'
p235
sg11
(iGeography
Coords
p236
(dp237
g14
F11.550000000000001
sg15
F104.84999999999999
sbsg16
S'Phnom Penh'
p238
sg18
S'difficult'
p239
sba(iGeography
Landmark
p240
(dp241
g9
S'CAMEROON'
p242
sg11
(iGeography
Coords
p243
(dp244
g14
F3.8666666666666667
sg15
F11.516666666666667
sbsg16
S'Yaounde'
p245
sg18
S'difficult'
p246
sba(iGeography
Landmark
p247
(dp248
g9
S'CANADA'
p249
sg11
(iGeography
Coords
p250
(dp251
g14
F45.31666666666667
sg15
F-75.666666666666671
sbsg16
S'Ottawa'
p252
sg18
S'difficult'
p253
sba(iGeography
Landmark
p254
(dp255
g9
S'CHAD'
p256
sg11
(iGeography
Coords
p257
(dp258
g14
F-12.116666666666667
sg15
F15.050000000000001
sbsg16
S"N'Djamena"
p259
sg18
S'difficult'
p260
sba(iGeography
Landmark
p261
(dp262
g9
S'CHILE'
p263
sg11
(iGeography
Coords
p264
(dp265
g14
F-53.166666666666664
sg15
F-70.900000000000006
sbsg16
S'Punta Arenas'
p266
sg18
S'difficult'
p267
sba(iGeography
Landmark
p268
(dp269
g9
g263
sg11
(iGeography
Coords
p270
(dp271
g14
F-33.450000000000003
sg15
F-70.700000000000003
sbsg16
S'Santiago'
p272
sg18
S'difficult'
p273
sba(iGeography
Landmark
p274
(dp275
g9
g263
sg11
(iGeography
Coords
p276
(dp277
g14
F-33.016666666666666
sg15
F-71.63333333333334
sbsg16
S'Valparaiso'
p278
sg18
S'difficult'
p279
sba(iGeography
Landmark
p280
(dp281
g9
S'CHINA'
p282
sg11
(iGeography
Coords
p283
(dp284
g14
F39.916666666666664
sg15
F116.43333333333334
sbsg16
S'Beijing'
p285
sg18
S'difficult'
p286
sba(iGeography
Landmark
p287
(dp288
g9
g282
sg11
(iGeography
Coords
p289
(dp290
g14
F31.199999999999999
sg15
F121.43333333333334
sbsg16
S'Shanghai'
p291
sg18
S'difficult'
p292
sba(iGeography
Landmark
p293
(dp294
g9
S'COLOMBIA'
p295
sg11
(iGeography
Coords
p296
(dp297
g14
F10.983333333333333
sg15
F-74.799999999999997
sbsg16
S'Baranquilla'
p298
sg18
S'difficult'
p299
sba(iGeography
Landmark
p300
(dp301
g9
g295
sg11
(iGeography
Coords
p302
(dp303
g14
F4.5999999999999996
sg15
F-74.083333333333329
sbsg16
S'Bogota'
p304
sg18
S'difficult'
p305
sba(iGeography
Landmark
p306
(dp307
g9
g295
sg11
(iGeography
Coords
p308
(dp309
g14
F3.4166666666666665
sg15
F-76.5
sbsg16
S'Cali'
p310
sg18
S'difficult'
p311
sba(iGeography
Landmark
p312
(dp313
g9
g295
sg11
(iGeography
Coords
p314
(dp315
g14
F6.2166666666666668
sg15
F-75.599999999999994
sbsg16
S'Medellin'
p316
sg18
S'difficult'
p317
sba(iGeography
Landmark
p318
(dp319
g9
S'CONGO'
p320
sg11
(iGeography
Coords
p321
(dp322
g14
F-4.25
sg15
F15.25
sbsg16
S'Brazzaville'
p323
sg18
S'difficult'
p324
sba(iGeography
Landmark
p325
(dp326
g9
S'CUBA'
p327
sg11
(iGeography
Coords
p328
(dp329
g14
F19.899999999999999
sg15
F-75.150000000000006
sbsg16
S'Guantanamo Bay'
p330
sg18
S'difficult'
p331
sba(iGeography
Landmark
p332
(dp333
g9
g327
sg11
(iGeography
Coords
p334
(dp335
g14
F23.133333333333333
sg15
F-82.349999999999994
sbsg16
S'Havana'
p336
sg18
S'difficult'
p337
sba(iGeography
Landmark
p338
(dp339
g9
S'CZECH REPUBLIC'
p340
sg11
(iGeography
Coords
p341
(dp342
g14
F50.083333333333336
sg15
F14.416666666666666
sbsg16
S'Prague'
p343
sg18
S'difficult'
p344
sba(iGeography
Landmark
p345
(dp346
g9
S'DENMARK'
p347
sg11
(iGeography
Coords
p348
(dp349
g14
F55.68333333333333
sg15
F12.550000000000001
sbsg16
S'Copenhagen'
p350
sg18
S'difficult'
p351
sba(iGeography
Landmark
p352
(dp353
g9
S'DOMINICAN REPUBLIC'
p354
sg11
(iGeography
Coords
p355
(dp356
g14
F18.483333333333334
sg15
F-69.900000000000006
sbsg16
S'Santo Domingo'
p357
sg18
S'difficult'
p358
sba(iGeography
Landmark
p359
(dp360
g9
S'EQUADOR'
p361
sg11
(iGeography
Coords
p362
(dp363
g14
F-2.2000000000000002
sg15
F-79.88333333333334
sbsg16
S'Guayaquil'
p364
sg18
S'difficult'
p365
sba(iGeography
Landmark
p366
(dp367
g9
g361
sg11
(iGeography
Coords
p368
(dp369
g14
F-0.21666666666666667
sg15
F-78.533333333333331
sbsg16
S'Quito'
p370
sg18
S'difficult'
p371
sba(iGeography
Landmark
p372
(dp373
g9
S'EGYPT'
p374
sg11
(iGeography
Coords
p375
(dp376
g14
F29.866666666666667
sg15
F31.333333333333332
sbsg16
S'Cairo'
p377
sg18
S'difficult'
p378
sba(iGeography
Landmark
p379
(dp380
g9
S'EL SALVADOR'
p381
sg11
(iGeography
Coords
p382
(dp383
g14
F13.699999999999999
sg15
F-89.216666666666669
sbsg16
S'San Salvador'
p384
sg18
S'difficult'
p385
sba(iGeography
Landmark
p386
(dp387
g9
S'ETHIOPIA'
p388
sg11
(iGeography
Coords
p389
(dp390
g14
F9.0333333333333332
sg15
F38.75
sbsg16
S'Addis Ababa'
p391
sg18
S'difficult'
p392
sba(iGeography
Landmark
p393
(dp394
g9
g388
sg11
(iGeography
Coords
p395
(dp396
g14
F15.283333333333333
sg15
F38.916666666666664
sbsg16
S'Asmara'
p397
sg18
S'difficult'
p398
sba(iGeography
Landmark
p399
(dp400
g9
S'FINLAND'
p401
sg11
(iGeography
Coords
p402
(dp403
g14
F60.166666666666664
sg15
F24.949999999999999
sbsg16
S'Helsinki'
p404
sg18
S'difficult'
p405
sba(iGeography
Landmark
p406
(dp407
g9
S'FRANCE'
p408
sg11
(iGeography
Coords
p409
(dp410
g14
F45.700000000000003
sg15
F4.7833333333333332
sbsg16
S'Lyon'
p411
sg18
S'difficult'
p412
sba(iGeography
Landmark
p413
(dp414
g9
g408
sg11
(iGeography
Coords
p415
(dp416
g14
F43.299999999999997
sg15
F5.3833333333333337
sbsg16
S'Marseilles'
p417
sg18
S'difficult'
p418
sba(iGeography
Landmark
p419
(dp420
g9
g408
sg11
(iGeography
Coords
p421
(dp422
g14
F47.25
sg15
F-1.5666666666666667
sbsg16
S'Nantes'
p423
sg18
S'difficult'
p424
sba(iGeography
Landmark
p425
(dp426
g9
g408
sg11
(iGeography
Coords
p427
(dp428
g14
F43.700000000000003
sg15
F7.2666666666666666
sbsg16
S'Nice'
p429
sg18
S'difficult'
p430
sba(iGeography
Landmark
p431
(dp432
g9
g408
sg11
(iGeography
Coords
p433
(dp434
g14
F48.81666666666667
sg15
F2.4833333333333334
sbsg16
S'Paris'
p435
sg18
S'difficult'
p436
sba(iGeography
Landmark
p437
(dp438
g9
g408
sg11
(iGeography
Coords
p439
(dp440
g14
F48.583333333333336
sg15
F7.7666666666666666
sbsg16
S'Strasbourg'
p441
sg18
S'difficult'
p442
sba(iGeography
Landmark
p443
(dp444
g9
S'FRENCH GUIANA'
p445
sg11
(iGeography
Coords
p446
(dp447
g14
F4.9333333333333336
sg15
F-52.450000000000003
sbsg16
S'Cayenne'
p448
sg18
S'difficult'
p449
sba(iGeography
Landmark
p450
(dp451
g9
S'GERMANY'
p452
sg11
(iGeography
Coords
p453
(dp454
g14
F52.450000000000003
sg15
F13.300000000000001
sbsg16
S'Berlin'
p455
sg18
S'difficult'
p456
sba(iGeography
Landmark
p457
(dp458
g9
g452
sg11
(iGeography
Coords
p459
(dp460
g14
F53.549999999999997
sg15
F9.9666666666666668
sbsg16
S'Hamburg'
p461
sg18
S'difficult'
p462
sba(iGeography
Landmark
p463
(dp464
g9
g452
sg11
(iGeography
Coords
p465
(dp466
g14
F52.399999999999999
sg15
F9.6666666666666661
sbsg16
S'Hannover'
p467
sg18
S'difficult'
p468
sba(iGeography
Landmark
p469
(dp470
g9
g452
sg11
(iGeography
Coords
p471
(dp472
g14
F49.56666666666667
sg15
F8.4666666666666668
sbsg16
S'Mannheim'
p473
sg18
S'difficult'
p474
sba(iGeography
Landmark
p475
(dp476
g9
g452
sg11
(iGeography
Coords
p477
(dp478
g14
F48.149999999999999
sg15
F11.566666666666666
sbsg16
S'Munich'
p479
sg18
S'difficult'
p480
sba(iGeography
Landmark
p481
(dp482
g9
S'GHANA'
p483
sg11
(iGeography
Coords
p484
(dp485
g14
F5.5499999999999998
sg15
F-0.20000000000000001
sbsg16
S'Accra'
p486
sg18
S'difficult'
p487
sba(iGeography
Landmark
p488
(dp489
g9
S'GIBRALTAR'
p490
sg11
(iGeography
Coords
p491
(dp492
g14
F36.149999999999999
sg15
F-5.3666666666666663
sbsg16
S'Gibraltar'
p493
sg18
S'difficult'
p494
sba(iGeography
Landmark
p495
(dp496
g9
S'GREECE'
p497
sg11
(iGeography
Coords
p498
(dp499
g14
F37.966666666666669
sg15
F23.716666666666665
sbsg16
S'Athens'
p500
sg18
S'difficult'
p501
sba(iGeography
Landmark
p502
(dp503
g9
g497
sg11
(iGeography
Coords
p504
(dp505
g14
F40.616666666666667
sg15
F22.949999999999999
sbsg16
S'Thessaloniki'
p506
sg18
S'difficult'
p507
sba(iGeography
Landmark
p508
(dp509
g9
S'GREENLAND'
p510
sg11
(iGeography
Coords
p511
(dp512
g14
F61.18333333333333
sg15
F-45.416666666666664
sbsg16
S'Narsarssuaq'
p513
sg18
S'difficult'
p514
sba(iGeography
Landmark
p515
(dp516
g9
S'GUATEMALA'
p517
sg11
(iGeography
Coords
p518
(dp519
g14
F14.616666666666667
sg15
F-90.516666666666666
sbsg16
S'Guatemala City'
p520
sg18
S'difficult'
p521
sba(iGeography
Landmark
p522
(dp523
g9
S'GUYANA'
p524
sg11
(iGeography
Coords
p525
(dp526
g14
F6.833333333333333
sg15
F-58.200000000000003
sbsg16
S'Georgetown'
p527
sg18
S'difficult'
p528
sba(iGeography
Landmark
p529
(dp530
g9
S'HAITI'
p531
sg11
(iGeography
Coords
p532
(dp533
g14
F18.550000000000001
sg15
F-72.333333333333329
sbsg16
S'Port Au Prince'
p534
sg18
S'difficult'
p535
sba(iGeography
Landmark
p536
(dp537
g9
S'HONDURAS'
p538
sg11
(iGeography
Coords
p539
(dp540
g14
F14.1
sg15
F-87.216666666666669
sbsg16
S'Tegucigalpa'
p541
sg18
S'difficult'
p542
sba(iGeography
Landmark
p543
(dp544
g9
S'HONG KONG'
p545
sg11
(iGeography
Coords
p546
(dp547
g14
F22.300000000000001
sg15
F114.16666666666667
sbsg16
S'Hong Kong'
p548
sg18
S'difficult'
p549
sba(iGeography
Landmark
p550
(dp551
g9
S'HUNGARY'
p552
sg11
(iGeography
Coords
p553
(dp554
g14
F47.516666666666666
sg15
F19.033333333333335
sbsg16
S'Budapest'
p555
sg18
S'difficult'
p556
sba(iGeography
Landmark
p557
(dp558
g9
S'ICELAND'
p559
sg11
(iGeography
Coords
p560
(dp561
g14
F64.13333333333334
sg15
F21.933333333333334
sbsg16
S'Reykjavik'
p562
sg18
S'difficult'
p563
sba(iGeography
Landmark
p564
(dp565
g9
S'INDIA'
p566
sg11
(iGeography
Coords
p567
(dp568
g14
F23.033333333333335
sg15
F72.583333333333329
sbsg16
S'Ahmenabad'
p569
sg18
S'difficult'
p570
sba(iGeography
Landmark
p571
(dp572
g9
g566
sg11
(iGeography
Coords
p573
(dp574
g14
F12.949999999999999
sg15
F77.61666666666666
sbsg16
S'Bangalore'
p575
sg18
S'difficult'
p576
sba(iGeography
Landmark
p577
(dp578
g9
g566
sg11
(iGeography
Coords
p579
(dp580
g14
F18.899999999999999
sg15
F72.816666666666663
sbsg16
S'Bombay'
p581
sg18
S'difficult'
p582
sba(iGeography
Landmark
p583
(dp584
g9
g566
sg11
(iGeography
Coords
p585
(dp586
g14
F22.533333333333335
sg15
F88.333333333333329
sbsg16
S'Calcutta'
p587
sg18
S'difficult'
p588
sba(iGeography
Landmark
p589
(dp590
g9
g566
sg11
(iGeography
Coords
p591
(dp592
g14
F13.066666666666666
sg15
F80.25
sbsg16
S'Madras'
p593
sg18
S'difficult'
p594
sba(iGeography
Landmark
p595
(dp596
g9
g566
sg11
(iGeography
Coords
p597
(dp598
g14
F21.149999999999999
sg15
F79.11666666666666
sbsg16
S'Nagpur'
p599
sg18
S'difficult'
p600
sba(iGeography
Landmark
p601
(dp602
g9
g566
sg11
(iGeography
Coords
p603
(dp604
g14
F28.583333333333332
sg15
F77.200000000000003
sbsg16
S'New Delhi'
p605
sg18
S'difficult'
p606
sba(iGeography
Landmark
p607
(dp608
g9
S'INDONESIA'
p609
sg11
(iGeography
Coords
p610
(dp611
g14
F-6.1833333333333336
sg15
F106.83333333333333
sbsg16
S'Djakarta'
p612
sg18
S'difficult'
p613
sba(iGeography
Landmark
p614
(dp615
g9
g609
sg11
(iGeography
Coords
p616
(dp617
g14
F-10.166666666666666
sg15
F123.56666666666666
sbsg16
S'Kupang'
p618
sg18
S'difficult'
p619
sba(iGeography
Landmark
p620
(dp621
g9
g609
sg11
(iGeography
Coords
p622
(dp623
g14
F-5.1333333333333337
sg15
F119.46666666666667
sbsg16
S'Makassar'
p624
sg18
S'difficult'
p625
sba(iGeography
Landmark
p626
(dp627
g9
g609
sg11
(iGeography
Coords
p628
(dp629
g14
F3.5833333333333335
sg15
F98.683333333333337
sbsg16
S'Medan'
p630
sg18
S'difficult'
p631
sba(iGeography
Landmark
p632
(dp633
g9
g609
sg11
(iGeography
Coords
p634
(dp635
g14
F-3.0
sg15
F104.76666666666667
sbsg16
S'Palembang'
p636
sg18
S'difficult'
p637
sba(iGeography
Landmark
p638
(dp639
g9
g609
sg11
(iGeography
Coords
p640
(dp641
g14
F-7.2166666666666668
sg15
F112.71666666666667
sbsg16
S'Surabaya'
p642
sg18
S'difficult'
p643
sba(iGeography
Landmark
p644
(dp645
g9
S'IRAN'
p646
sg11
(iGeography
Coords
p647
(dp648
g14
F30.350000000000001
sg15
F48.266666666666666
sbsg16
S'Abadan'
p649
sg18
S'difficult'
p650
sba(iGeography
Landmark
p651
(dp652
g9
g646
sg11
(iGeography
Coords
p653
(dp654
g14
F36.283333333333331
sg15
F59.600000000000001
sbsg16
S'Meshed'
p655
sg18
S'difficult'
p656
sba(iGeography
Landmark
p657
(dp658
g9
g646
sg11
(iGeography
Coords
p659
(dp660
g14
F35.68333333333333
sg15
F51.416666666666664
sbsg16
S'Tehran'
p661
sg18
S'difficult'
p662
sba(iGeography
Landmark
p663
(dp664
g9
S'IRAQ'
p665
sg11
(iGeography
Coords
p666
(dp667
g14
F33.333333333333336
sg15
F44.399999999999999
sbsg16
S'Baghdad'
p668
sg18
S'difficult'
p669
sba(iGeography
Landmark
p670
(dp671
g9
g665
sg11
(iGeography
Coords
p672
(dp673
g14
F36.31666666666667
sg15
F43.149999999999999
sbsg16
S'Mosul'
p674
sg18
S'difficult'
p675
sba(iGeography
Landmark
p676
(dp677
g9
S'IRELAND'
p678
sg11
(iGeography
Coords
p679
(dp680
g14
F53.366666666666667
sg15
F-6.3499999999999996
sbsg16
S'Dublin'
p681
sg18
S'difficult'
p682
sba(iGeography
Landmark
p683
(dp684
g9
g678
sg11
(iGeography
Coords
p685
(dp686
g14
F52.68333333333333
sg15
F-8.9166666666666661
sbsg16
S'Shannon'
p687
sg18
S'difficult'
p688
sba(iGeography
Landmark
p689
(dp690
g9
S'IRIAN BARAT'
p691
sg11
(iGeography
Coords
p692
(dp693
g14
F-0.8666666666666667
sg15
F134.08333333333334
sbsg16
S'Manokwari'
p694
sg18
S'difficult'
p695
sba(iGeography
Landmark
p696
(dp697
g9
S'ISRAEL'
p698
sg11
(iGeography
Coords
p699
(dp700
g14
F31.783333333333335
sg15
F35.216666666666669
sbsg16
S'Jerusalem'
p701
sg18
S'difficult'
p702
sba(iGeography
Landmark
p703
(dp704
g9
g698
sg11
(iGeography
Coords
p705
(dp706
g14
F32.100000000000001
sg15
F34.783333333333331
sbsg16
S'Tel Aviv'
p707
sg18
S'difficult'
p708
sba(iGeography
Landmark
p709
(dp710
g9
S'ITALY'
p711
sg11
(iGeography
Coords
p712
(dp713
g14
F45.450000000000003
sg15
F9.2833333333333332
sbsg16
S'Milan'
p714
sg18
S'difficult'
p715
sba(iGeography
Landmark
p716
(dp717
g9
g711
sg11
(iGeography
Coords
p718
(dp719
g14
F40.883333333333333
sg15
F14.300000000000001
sbsg16
S'Naples'
p720
sg18
S'difficult'
p721
sba(iGeography
Landmark
p722
(dp723
g9
g711
sg11
(iGeography
Coords
p724
(dp725
g14
F41.799999999999997
sg15
F12.6
sbsg16
S'Rome'
p726
sg18
S'difficult'
p727
sba(iGeography
Landmark
p728
(dp729
g9
S'IVORY COAST'
p730
sg11
(iGeography
Coords
p731
(dp732
g14
F5.3166666666666664
sg15
F-4.0166666666666666
sbsg16
S'Abidjan'
p733
sg18
S'difficult'
p734
sba(iGeography
Landmark
p735
(dp736
g9
S'JAPAN'
p737
sg11
(iGeography
Coords
p738
(dp739
g14
F33.583333333333336
sg15
F130.44999999999999
sbsg16
S'Fukuoka'
p740
sg18
S'difficult'
p741
sba(iGeography
Landmark
p742
(dp743
g9
g737
sg11
(iGeography
Coords
p744
(dp745
g14
F43.06666666666667
sg15
F141.34999999999999
sbsg16
S'Sapporo'
p746
sg18
S'difficult'
p747
sba(iGeography
Landmark
p748
(dp749
g9
g737
sg11
(iGeography
Coords
p750
(dp751
g14
F35.68333333333333
sg15
F139.76666666666668
sbsg16
S'Tokyo'
p752
sg18
S'difficult'
p753
sba(iGeography
Landmark
p754
(dp755
g9
S'JORDAN'
p756
sg11
(iGeography
Coords
p757
(dp758
g14
F31.949999999999999
sg15
F35.950000000000003
sbsg16
S'Amman'
p759
sg18
S'difficult'
p760
sba(iGeography
Landmark
p761
(dp762
g9
S'KENYA'
p763
sg11
(iGeography
Coords
p764
(dp765
g14
F-1.2666666666666666
sg15
F36.799999999999997
sbsg16
S'Nairobi'
p766
sg18
S'difficult'
p767
sba(iGeography
Landmark
p768
(dp769
g9
S'KOREA'
p770
sg11
(iGeography
Coords
p771
(dp772
g14
F39.033333333333331
sg15
F125.68333333333334
sbsg16
S'Pyongyang'
p773
sg18
S'difficult'
p774
sba(iGeography
Landmark
p775
(dp776
g9
g770
sg11
(iGeography
Coords
p777
(dp778
g14
F37.56666666666667
sg15
F126.96666666666667
sbsg16
S'Seoul'
p779
sg18
S'difficult'
p780
sba(iGeography
Landmark
p781
(dp782
g9
S'KUWAIT'
p783
sg11
(iGeography
Coords
p784
(dp785
g14
F29.333333333333332
sg15
F47.983333333333334
sbsg16
S'Kuwait City'
p786
sg18
S'difficult'
p787
sba(iGeography
Landmark
p788
(dp789
g9
S'LATVIA'
p790
sg11
(iGeography
Coords
p791
(dp792
g14
F56.950000000000003
sg15
F24.100000000000001
sbsg16
S'Riga'
p793
sg18
S'difficult'
p794
sba(iGeography
Landmark
p795
(dp796
g9
S'LEBANON'
p797
sg11
(iGeography
Coords
p798
(dp799
g14
F33.899999999999999
sg15
F35.466666666666669
sbsg16
S'Beirut'
p800
sg18
S'difficult'
p801
sba(iGeography
Landmark
p802
(dp803
g9
S'LIBERIA'
p804
sg11
(iGeography
Coords
p805
(dp806
g14
F6.2999999999999998
sg15
F-10.800000000000001
sbsg16
S'Monrovia'
p807
sg18
S'difficult'
p808
sba(iGeography
Landmark
p809
(dp810
g9
S'LIBYA'
p811
sg11
(iGeography
Coords
p812
(dp813
g14
F32.100000000000001
sg15
F20.066666666666666
sbsg16
S'Benghazi'
p814
sg18
S'difficult'
p815
sba(iGeography
Landmark
p816
(dp817
g9
g811
sg11
(iGeography
Coords
p818
(dp819
g14
F32.899999999999999
sg15
F13.183333333333334
sbsg16
S'Tripoli'
p820
sg18
S'difficult'
p821
sba(iGeography
Landmark
p822
(dp823
g9
S'MADAGASCAR'
p824
sg11
(iGeography
Coords
p825
(dp826
g14
F-18.916666666666668
sg15
F47.549999999999997
sbsg16
S'Tananarive'
p827
sg18
S'difficult'
p828
sba(iGeography
Landmark
p829
(dp830
g9
S'MALAYSIA'
p831
sg11
(iGeography
Coords
p832
(dp833
g14
F3.1166666666666667
sg15
F101.7
sbsg16
S'Kuala Lumpur'
p834
sg18
S'difficult'
p835
sba(iGeography
Landmark
p836
(dp837
g9
g831
sg11
(iGeography
Coords
p838
(dp839
g14
F5.416666666666667
sg15
F100.31666666666666
sbsg16
S'Penang'
p840
sg18
S'difficult'
p841
sba(iGeography
Landmark
p842
(dp843
g9
S'MARTINIQUE'
p844
sg11
(iGeography
Coords
p845
(dp846
g14
F14.616666666666667
sg15
F-61.083333333333336
sbsg16
S'Fort De France'
p847
sg18
S'difficult'
p848
sba(iGeography
Landmark
p849
(dp850
g9
S'MEXICO'
p851
sg11
(iGeography
Coords
p852
(dp853
g14
F20.683333333333334
sg15
F-103.33333333333333
sbsg16
S'Guadalajara'
p854
sg18
S'difficult'
p855
sba(iGeography
Landmark
p856
(dp857
g9
g851
sg11
(iGeography
Coords
p858
(dp859
g14
F20.966666666666665
sg15
F-89.63333333333334
sbsg16
S'Merida'
p860
sg18
S'difficult'
p861
sba(iGeography
Landmark
p862
(dp863
g9
g851
sg11
(iGeography
Coords
p864
(dp865
g14
F19.399999999999999
sg15
F-99.200000000000003
sbsg16
S'Mexico City'
p866
sg18
S'difficult'
p867
sba(iGeography
Landmark
p868
(dp869
g9
g851
sg11
(iGeography
Coords
p870
(dp871
g14
F25.666666666666668
sg15
F-100.3
sbsg16
S'Monterrey'
p872
sg18
S'difficult'
p873
sba(iGeography
Landmark
p874
(dp875
g9
g851
sg11
(iGeography
Coords
p876
(dp877
g14
F19.199999999999999
sg15
F-96.13333333333334
sbsg16
S'Vera Cruz'
p878
sg18
S'difficult'
p879
sba(iGeography
Landmark
p880
(dp881
g9
S'MONGOLIA'
p882
sg11
(iGeography
Coords
p883
(dp884
g14
F47.916666666666664
sg15
F106.88333333333334
sbsg16
S'Ulaanbaatar'
p885
sg18
S'difficult'
p886
sba(iGeography
Landmark
p887
(dp888
g9
S'MOROCCO'
p889
sg11
(iGeography
Coords
p890
(dp891
g14
F33.583333333333336
sg15
F-7.6500000000000004
sbsg16
S'Casablanca'
p892
sg18
S'difficult'
p893
sba(iGeography
Landmark
p894
(dp895
g9
S'MYANMAR'
p896
sg11
(iGeography
Coords
p897
(dp898
g14
F21.983333333333334
sg15
F96.099999999999994
sbsg16
S'Mandalay'
p899
sg18
S'difficult'
p900
sba(iGeography
Landmark
p901
(dp902
g9
g896
sg11
(iGeography
Coords
p903
(dp904
g14
F16.783333333333335
sg15
F96.150000000000006
sbsg16
S'Yangon'
p905
sg18
S'difficult'
p906
sba(iGeography
Landmark
p907
(dp908
g9
S'MAURITANIA'
p909
sg11
(iGeography
Coords
p910
(dp911
g14
F18.100000000000001
sg15
F-15.949999999999999
sbsg16
S'Nouakchott'
p912
sg18
S'difficult'
p913
sba(iGeography
Landmark
p914
(dp915
g9
S'NEPAL'
p916
sg11
(iGeography
Coords
p917
(dp918
g14
F27.699999999999999
sg15
F85.200000000000003
sbsg16
S'Kathmandu'
p919
sg18
S'difficult'
p920
sba(iGeography
Landmark
p921
(dp922
g9
S'NETHERLANDS'
p923
sg11
(iGeography
Coords
p924
(dp925
g14
F52.383333333333333
sg15
F4.916666666666667
sbsg16
S'Amsterdam'
p926
sg18
S'difficult'
p927
sba(iGeography
Landmark
p928
(dp929
g9
S'NEW ZEALAND'
p930
sg11
(iGeography
Coords
p931
(dp932
g14
F-36.850000000000001
sg15
F174.76666666666668
sbsg16
S'Auckland'
p933
sg18
S'difficult'
p934
sba(iGeography
Landmark
p935
(dp936
g9
g930
sg11
(iGeography
Coords
p937
(dp938
g14
F-43.533333333333331
sg15
F172.61666666666667
sbsg16
S'Christchurch'
p939
sg18
S'difficult'
p940
sba(iGeography
Landmark
p941
(dp942
g9
g930
sg11
(iGeography
Coords
p943
(dp944
g14
F-41.283333333333331
sg15
F174.76666666666668
sbsg16
S'Wellington'
p945
sg18
S'difficult'
p946
sba(iGeography
Landmark
p947
(dp948
g9
S'NICARAGUA'
p949
sg11
(iGeography
Coords
p950
(dp951
g14
F12.166666666666666
sg15
F-86.25
sbsg16
S'Managua'
p952
sg18
S'difficult'
p953
sba(iGeography
Landmark
p954
(dp955
g9
S'NIGERIA'
p956
sg11
(iGeography
Coords
p957
(dp958
g14
F6.4500000000000002
sg15
F3.3999999999999999
sbsg16
S'Lagos'
p959
sg18
S'difficult'
p960
sba(iGeography
Landmark
p961
(dp962
g9
S'NORWAY'
p963
sg11
(iGeography
Coords
p964
(dp965
g14
F60.399999999999999
sg15
F5.3166666666666664
sbsg16
S'Bergen'
p966
sg18
S'difficult'
p967
sba(iGeography
Landmark
p968
(dp969
g9
g963
sg11
(iGeography
Coords
p970
(dp971
g14
F59.93333333333333
sg15
F10.733333333333333
sbsg16
S'Oslo'
p972
sg18
S'difficult'
p973
sba(iGeography
Landmark
p974
(dp975
g9
S'PAKISTAN'
p976
sg11
(iGeography
Coords
p977
(dp978
g14
F33.700000000000003
sg15
F73.166666666666671
sbsg16
S'Islamabad'
p979
sg18
S'difficult'
p980
sba(iGeography
Landmark
p981
(dp982
g9
g976
sg11
(iGeography
Coords
p983
(dp984
g14
F24.800000000000001
sg15
F66.983333333333334
sbsg16
S'Karachi'
p985
sg18
S'difficult'
p986
sba(iGeography
Landmark
p987
(dp988
g9
g976
sg11
(iGeography
Coords
p989
(dp990
g14
F31.583333333333332
sg15
F74.333333333333329
sbsg16
S'Lahore'
p991
sg18
S'difficult'
p992
sba(iGeography
Landmark
p993
(dp994
g9
g976
sg11
(iGeography
Coords
p995
(dp996
g14
F34.016666666666666
sg15
F71.583333333333329
sbsg16
S'Peshewar'
p997
sg18
S'difficult'
p998
sba(iGeography
Landmark
p999
(dp1000
g9
S'PANAMA'
p1001
sg11
(iGeography
Coords
p1002
(dp1003
g14
F8.9666666666666668
sg15
F-79.549999999999997
sbsg16
S'Panama City'
p1004
sg18
S'difficult'
p1005
sba(iGeography
Landmark
p1006
(dp1007
g9
S'PAPUA NEW GUINEA'
p1008
sg11
(iGeography
Coords
p1009
(dp1010
g14
F-9.4833333333333325
sg15
F147.15000000000001
sbsg16
S'Port Moresby'
p1011
sg18
S'difficult'
p1012
sba(iGeography
Landmark
p1013
(dp1014
g9
S'PARAGUAY'
p1015
sg11
(iGeography
Coords
p1016
(dp1017
g14
F-25.283333333333335
sg15
F-57.5
sbsg16
S'Ascuncion'
p1018
sg18
S'difficult'
p1019
sba(iGeography
Landmark
p1020
(dp1021
g9
S'PERU'
p1022
sg11
(iGeography
Coords
p1023
(dp1024
g14
F-12.083333333333334
sg15
F-77.049999999999997
sbsg16
S'Lima'
p1025
sg18
S'difficult'
p1026
sba(iGeography
Landmark
p1027
(dp1028
g9
S'PHILIPPINES'
p1029
sg11
(iGeography
Coords
p1030
(dp1031
g14
F14.583333333333334
sg15
F120.98333333333333
sbsg16
S'Manila'
p1032
sg18
S'difficult'
p1033
sba(iGeography
Landmark
p1034
(dp1035
g9
S'POLAND'
p1036
sg11
(iGeography
Coords
p1037
(dp1038
g14
F50.06666666666667
sg15
F19.949999999999999
sbsg16
S'Krakow'
p1039
sg18
S'difficult'
p1040
sba(iGeography
Landmark
p1041
(dp1042
g9
g1036
sg11
(iGeography
Coords
p1043
(dp1044
g14
F52.216666666666669
sg15
F21.033333333333335
sbsg16
S'Warsaw'
p1045
sg18
S'difficult'
p1046
sba(iGeography
Landmark
p1047
(dp1048
g9
S'PORTUGAL'
p1049
sg11
(iGeography
Coords
p1050
(dp1051
g14
F38.716666666666669
sg15
F-9.1333333333333329
sbsg16
S'Lisbon'
p1052
sg18
S'difficult'
p1053
sba(iGeography
Landmark
p1054
(dp1055
g9
S'PUERTO RICO'
p1056
sg11
(iGeography
Coords
p1057
(dp1058
g14
F18.483333333333334
sg15
F-66.11666666666666
sbsg16
S'San Juan'
p1059
sg18
S'difficult'
p1060
sba(iGeography
Landmark
p1061
(dp1062
g9
S'ROMANIA'
p1063
sg11
(iGeography
Coords
p1064
(dp1065
g14
F44.416666666666664
sg15
F26.100000000000001
sbsg16
S'Bucharest'
p1066
sg18
S'difficult'
p1067
sba(iGeography
Landmark
p1068
(dp1069
g9
S'RUSSIA'
p1070
sg11
(iGeography
Coords
p1071
(dp1072
g14
F43.233333333333334
sg15
F76.88333333333334
sbsg16
S'Alma Ata'
p1073
sg18
S'difficult'
p1074
sba(iGeography
Landmark
p1075
(dp1076
g9
g1070
sg11
(iGeography
Coords
p1077
(dp1078
g14
F64.549999999999997
sg15
F40.533333333333331
sbsg16
S'Archangel'
p1079
sg18
S'difficult'
p1080
sba(iGeography
Landmark
p1081
(dp1082
g9
g1070
sg11
(iGeography
Coords
p1083
(dp1084
g14
F54.716666666666669
sg15
F20.5
sbsg16
S'Kaliningrad'
p1085
sg18
S'difficult'
p1086
sba(iGeography
Landmark
p1087
(dp1088
g9
g1070
sg11
(iGeography
Coords
p1089
(dp1090
g14
F56.016666666666666
sg15
F92.950000000000003
sbsg16
S'Krasnoyarsk'
p1091
sg18
S'difficult'
p1092
sba(iGeography
Landmark
p1093
(dp1094
g9
g1070
sg11
(iGeography
Coords
p1095
(dp1096
g14
F50.450000000000003
sg15
F30.5
sbsg16
S'Kiev'
p1097
sg18
S'difficult'
p1098
sba(iGeography
Landmark
p1099
(dp1100
g9
g1070
sg11
(iGeography
Coords
p1101
(dp1102
g14
F50.0
sg15
F36.233333333333334
sbsg16
S'Kharkov'
p1103
sg18
S'difficult'
p1104
sba(iGeography
Landmark
p1105
(dp1106
g9
g1070
sg11
(iGeography
Coords
p1107
(dp1108
g14
F53.18333333333333
sg15
F50.100000000000001
sbsg16
S'Kuibyshev'
p1109
sg18
S'difficult'
p1110
sba(iGeography
Landmark
p1111
(dp1112
g9
g1070
sg11
(iGeography
Coords
p1113
(dp1114
g14
F53.899999999999999
sg15
F27.550000000000001
sbsg16
S'Minsk'
p1115
sg18
S'difficult'
p1116
sba(iGeography
Landmark
p1117
(dp1118
g9
g1070
sg11
(iGeography
Coords
p1119
(dp1120
g14
F55.766666666666666
sg15
F37.666666666666664
sbsg16
S'Moscow'
p1121
sg18
S'difficult'
p1122
sba(iGeography
Landmark
p1123
(dp1124
g9
g1070
sg11
(iGeography
Coords
p1125
(dp1126
g14
F46.483333333333334
sg15
F30.733333333333334
sbsg16
S'Odessa'
p1127
sg18
S'difficult'
p1128
sba(iGeography
Landmark
p1129
(dp1130
g9
g1070
sg11
(iGeography
Coords
p1131
(dp1132
g14
F52.883333333333333
sg15
F158.69999999999999
sbsg16
S'Petropavlovsk'
p1133
sg18
S'difficult'
p1134
sba(iGeography
Landmark
p1135
(dp1136
g9
g1070
sg11
(iGeography
Coords
p1137
(dp1138
g14
F47.216666666666669
sg15
F39.716666666666669
sbsg16
S'Rostov on Don'
p1139
sg18
S'difficult'
p1140
sba(iGeography
Landmark
p1141
(dp1142
g9
g1070
sg11
(iGeography
Coords
p1143
(dp1144
g14
F56.81666666666667
sg15
F60.633333333333333
sbsg16
S'Sverdlovsk'
p1145
sg18
S'difficult'
p1146
sba(iGeography
Landmark
p1147
(dp1148
g9
g1070
sg11
(iGeography
Coords
p1149
(dp1150
g14
F59.93333333333333
sg15
F30.266666666666666
sbsg16
S'St. Petersburg'
p1151
sg18
S'difficult'
p1152
sba(iGeography
Landmark
p1153
(dp1154
g9
g1070
sg11
(iGeography
Coords
p1155
(dp1156
g14
F41.333333333333336
sg15
F69.299999999999997
sbsg16
S'Tashkent'
p1157
sg18
S'difficult'
p1158
sba(iGeography
Landmark
p1159
(dp1160
g9
g1070
sg11
(iGeography
Coords
p1161
(dp1162
g14
F41.716666666666669
sg15
F44.799999999999997
sbsg16
S'Tbilisi'
p1163
sg18
S'difficult'
p1164
sba(iGeography
Landmark
p1165
(dp1166
g9
g1070
sg11
(iGeography
Coords
p1167
(dp1168
g14
F43.116666666666667
sg15
F131.91666666666666
sbsg16
S'Vladivostok'
p1169
sg18
S'difficult'
p1170
sba(iGeography
Landmark
p1171
(dp1172
g9
g1070
sg11
(iGeography
Coords
p1173
(dp1174
g14
F48.700000000000003
sg15
F44.516666666666666
sbsg16
S'Volgograd'
p1175
sg18
S'difficult'
p1176
sba(iGeography
Landmark
p1177
(dp1178
g9
S'SAUDI ARABIA'
p1179
sg11
(iGeography
Coords
p1180
(dp1181
g14
F26.283333333333335
sg15
F50.149999999999999
sbsg16
S'Dhahran'
p1182
sg18
S'difficult'
p1183
sba(iGeography
Landmark
p1184
(dp1185
g9
g1179
sg11
(iGeography
Coords
p1186
(dp1187
g14
F21.466666666666665
sg15
F39.166666666666664
sbsg16
S'Jedda'
p1188
sg18
S'difficult'
p1189
sba(iGeography
Landmark
p1190
(dp1191
g9
g1179
sg11
(iGeography
Coords
p1192
(dp1193
g14
F24.649999999999999
sg15
F46.700000000000003
sbsg16
S'Riyadh'
p1194
sg18
S'difficult'
p1195
sba(iGeography
Landmark
p1196
(dp1197
g9
S'SENEGAL'
p1198
sg11
(iGeography
Coords
p1199
(dp1200
g14
F14.699999999999999
sg15
F-17.483333333333334
sbsg16
S'Dakar'
p1201
sg18
S'difficult'
p1202
sba(iGeography
Landmark
p1203
(dp1204
g9
S'SIERRA LEONE'
p1205
sg11
(iGeography
Coords
p1206
(dp1207
g14
F8.5
sg15
F-13.25
sbsg16
S'Freetown'
p1208
sg18
S'difficult'
p1209
sba(iGeography
Landmark
p1210
(dp1211
g9
S'SINGAPORE'
p1212
sg11
(iGeography
Coords
p1213
(dp1214
g14
F1.3
sg15
F103.83333333333333
sbsg16
S'Singapore'
p1215
sg18
S'difficult'
p1216
sba(iGeography
Landmark
p1217
(dp1218
g9
S'SOMALIA'
p1219
sg11
(iGeography
Coords
p1220
(dp1221
g14
F2.0333333333333332
sg15
F49.31666666666667
sbsg16
S'Mogadishu'
p1222
sg18
S'difficult'
p1223
sba(iGeography
Landmark
p1224
(dp1225
g9
S'SOUTH AFRICA'
p1226
sg11
(iGeography
Coords
p1227
(dp1228
g14
F-33.93333333333333
sg15
F18.483333333333334
sbsg16
S'Cape Town'
p1229
sg18
S'difficult'
p1230
sba(iGeography
Landmark
p1231
(dp1232
g9
g1226
sg11
(iGeography
Coords
p1233
(dp1234
g14
F-26.183333333333334
sg15
F28.050000000000001
sbsg16
S'Johannesburg'
p1235
sg18
S'difficult'
p1236
sba(iGeography
Landmark
p1237
(dp1238
g9
g1226
sg11
(iGeography
Coords
p1239
(dp1240
g14
F-25.75
sg15
F28.233333333333334
sbsg16
S'Pretoria'
p1241
sg18
S'difficult'
p1242
sba(iGeography
Landmark
p1243
(dp1244
g9
S'SPAIN'
p1245
sg11
(iGeography
Coords
p1246
(dp1247
g14
F41.399999999999999
sg15
F2.1499999999999999
sbsg16
S'Barcelona'
p1248
sg18
S'difficult'
p1249
sba(iGeography
Landmark
p1250
(dp1251
g9
g1245
sg11
(iGeography
Coords
p1252
(dp1253
g14
F40.416666666666664
sg15
F-3.6833333333333336
sbsg16
S'Madrid'
p1254
sg18
S'difficult'
p1255
sba(iGeography
Landmark
p1256
(dp1257
g9
g1245
sg11
(iGeography
Coords
p1258
(dp1259
g14
F39.466666666666669
sg15
F-0.38333333333333336
sbsg16
S'Valencia'
p1260
sg18
S'difficult'
p1261
sba(iGeography
Landmark
p1262
(dp1263
g9
S'SRI LANKA'
p1264
sg11
(iGeography
Coords
p1265
(dp1266
g14
F6.9000000000000004
sg15
F79.86666666666666
sbsg16
S'Colombo'
p1267
sg18
S'difficult'
p1268
sba(iGeography
Landmark
p1269
(dp1270
g9
S'SUDAN'
p1271
sg11
(iGeography
Coords
p1272
(dp1273
g14
F15.616666666666667
sg15
F32.549999999999997
sbsg16
S'Khartoum'
p1274
sg18
S'difficult'
p1275
sba(iGeography
Landmark
p1276
(dp1277
g9
S'SURINAM'
p1278
sg11
(iGeography
Coords
p1279
(dp1280
g14
F5.8166666666666664
sg15
F-55.149999999999999
sbsg16
S'Paramaribo'
p1281
sg18
S'difficult'
p1282
sba(iGeography
Landmark
p1283
(dp1284
g9
S'SWEDEN'
p1285
sg11
(iGeography
Coords
p1286
(dp1287
g14
F59.350000000000001
sg15
F18.066666666666666
sbsg16
S'Stockholm'
p1288
sg18
S'difficult'
p1289
sba(iGeography
Landmark
p1290
(dp1291
g9
S'SWITZERLAND'
p1292
sg11
(iGeography
Coords
p1293
(dp1294
g14
F47.383333333333333
sg15
F8.5500000000000007
sbsg16
S'Zurich'
p1295
sg18
S'difficult'
p1296
sba(iGeography
Landmark
p1297
(dp1298
g9
S'SYRIA'
p1299
sg11
(iGeography
Coords
p1300
(dp1301
g14
F33.5
sg15
F36.333333333333336
sbsg16
S'Damascus'
p1302
sg18
S'difficult'
p1303
sba(iGeography
Landmark
p1304
(dp1305
g9
S'TAIWAN'
p1306
sg11
(iGeography
Coords
p1307
(dp1308
g14
F22.949999999999999
sg15
F120.2
sbsg16
S'Tainan'
p1309
sg18
S'difficult'
p1310
sba(iGeography
Landmark
p1311
(dp1312
g9
g1306
sg11
(iGeography
Coords
p1313
(dp1314
g14
F25.033333333333335
sg15
F121.51666666666667
sbsg16
S'Taipei'
p1315
sg18
S'difficult'
p1316
sba(iGeography
Landmark
p1317
(dp1318
g9
S'TANZANIA'
p1319
sg11
(iGeography
Coords
p1320
(dp1321
g14
F-6.833333333333333
sg15
F39.299999999999997
sbsg16
S'Dar es Salaam'
p1322
sg18
S'difficult'
p1323
sba(iGeography
Landmark
p1324
(dp1325
g9
S'THAILAND'
p1326
sg11
(iGeography
Coords
p1327
(dp1328
g14
F13.733333333333333
sg15
F100.5
sbsg16
S'Bangkok'
p1329
sg18
S'difficult'
p1330
sba(iGeography
Landmark
p1331
(dp1332
g9
S'TONGA'
p1333
sg11
(iGeography
Coords
p1334
(dp1335
g14
F-21.133333333333333
sg15
F-175.19999999999999
sbsg16
S'Nukualofa'
p1336
sg18
S'difficult'
p1337
sba(iGeography
Landmark
p1338
(dp1339
g9
S'TRINIDAD'
p1340
sg11
(iGeography
Coords
p1341
(dp1342
g14
F10.666666666666666
sg15
F-61.516666666666666
sbsg16
S'Port of Spain'
p1343
sg18
S'difficult'
p1344
sba(iGeography
Landmark
p1345
(dp1346
g9
S'TUNISIA'
p1347
sg11
(iGeography
Coords
p1348
(dp1349
g14
F36.783333333333331
sg15
F10.199999999999999
sbsg16
S'Tunis'
p1350
sg18
S'difficult'
p1351
sba(iGeography
Landmark
p1352
(dp1353
g9
S'TURKEY'
p1354
sg11
(iGeography
Coords
p1355
(dp1356
g14
F36.983333333333334
sg15
F35.299999999999997
sbsg16
S'Adana'
p1357
sg18
S'difficult'
p1358
sba(iGeography
Landmark
p1359
(dp1360
g9
g1354
sg11
(iGeography
Coords
p1361
(dp1362
g14
F39.950000000000003
sg15
F32.883333333333333
sbsg16
S'Ankara'
p1363
sg18
S'difficult'
p1364
sba(iGeography
Landmark
p1365
(dp1366
g9
g1354
sg11
(iGeography
Coords
p1367
(dp1368
g14
F40.966666666666669
sg15
F28.833333333333332
sbsg16
S'Istanbul'
p1369
sg18
S'difficult'
p1370
sba(iGeography
Landmark
p1371
(dp1372
g9
g1354
sg11
(iGeography
Coords
p1373
(dp1374
g14
F38.43333333333333
sg15
F27.166666666666668
sbsg16
S'Izmir'
p1375
sg18
S'difficult'
p1376
sba(iGeography
Landmark
p1377
(dp1378
g9
S'UNITED KINGDOM'
p1379
sg11
(iGeography
Coords
p1380
(dp1381
g14
F54.600000000000001
sg15
F-5.916666666666667
sbsg16
S'Belfast'
p1382
sg18
S'difficult'
p1383
sba(iGeography
Landmark
p1384
(dp1385
g9
g1379
sg11
(iGeography
Coords
p1386
(dp1387
g14
F52.483333333333334
sg15
F-1.9333333333333333
sbsg16
S'Birmingham'
p1388
sg18
S'difficult'
p1389
sba(iGeography
Landmark
p1390
(dp1391
g9
g1379
sg11
(iGeography
Coords
p1392
(dp1393
g14
F51.466666666666669
sg15
F-3.1666666666666665
sbsg16
S'Cardiff'
p1394
sg18
S'difficult'
p1395
sba(iGeography
Landmark
p1396
(dp1397
g9
g1379
sg11
(iGeography
Coords
p1398
(dp1399
g14
F55.916666666666664
sg15
F-3.1833333333333331
sbsg16
S'Edinburgh'
p1400
sg18
S'difficult'
p1401
sba(iGeography
Landmark
p1402
(dp1403
g9
g1379
sg11
(iGeography
Coords
p1404
(dp1405
g14
F55.866666666666667
sg15
F-4.2833333333333332
sbsg16
S'Glasgow'
p1406
sg18
S'difficult'
p1407
sba(iGeography
Landmark
p1408
(dp1409
g9
g1379
sg11
(iGeography
Coords
p1410
(dp1411
g14
F51.483333333333334
sg15
F-0.0
sbsg16
S'London'
p1412
sg18
S'difficult'
p1413
sba(iGeography
Landmark
p1414
(dp1415
g9
S'UNITED STATES'
p1416
sg11
(iGeography
Coords
p1417
(dp1418
g14
F38.883333333333333
sg15
F-77.033333333333331
sbsg16
S'Washington D.C.'
p1419
sg18
S'difficult'
p1420
sba(iGeography
Landmark
p1421
(dp1422
g9
S'URUGUAY'
p1423
sg11
(iGeography
Coords
p1424
(dp1425
g14
F-34.850000000000001
sg15
F-56.216666666666669
sbsg16
S'Montevideo'
p1426
sg18
S'difficult'
p1427
sba(iGeography
Landmark
p1428
(dp1429
g9
S'VANUATU'
p1430
sg11
(iGeography
Coords
p1431
(dp1432
g14
F-17.733333333333334
sg15
F168.31666666666666
sbsg16
S'Vila'
p1433
sg18
S'difficult'
p1434
sba(iGeography
Landmark
p1435
(dp1436
g9
S'VENEZUELA'
p1437
sg11
(iGeography
Coords
p1438
(dp1439
g14
F10.5
sg15
F-66.933333333333337
sbsg16
S'Caracas'
p1440
sg18
S'difficult'
p1441
sba(iGeography
Landmark
p1442
(dp1443
g9
g1437
sg11
(iGeography
Coords
p1444
(dp1445
g14
F10.65
sg15
F-71.599999999999994
sbsg16
S'Maracaibo'
p1446
sg18
S'difficult'
p1447
sba(iGeography
Landmark
p1448
(dp1449
g9
S'VIETNAM'
p1450
sg11
(iGeography
Coords
p1451
(dp1452
g14
F16.066666666666666
sg15
F108.21666666666667
sbsg16
S'Da Nang'
p1453
sg18
S'difficult'
p1454
sba(iGeography
Landmark
p1455
(dp1456
g9
g1450
sg11
(iGeography
Coords
p1457
(dp1458
g14
F21.033333333333335
sg15
F105.86666666666666
sbsg16
S'Hanoi'
p1459
sg18
S'difficult'
p1460
sba(iGeography
Landmark
p1461
(dp1462
g9
g1450
sg11
(iGeography
Coords
p1463
(dp1464
g14
F10.783333333333333
sg15
F106.7
sbsg16
S'Ho Chi Minh City'
p1465
sg18
S'difficult'
p1466
sba(iGeography
Landmark
p1467
(dp1468
g9
S'YEMEN'
p1469
sg11
(iGeography
Coords
p1470
(dp1471
g14
F12.833333333333334
sg15
F45.033333333333331
sbsg16
S'Aden'
p1472
sg18
S'difficult'
p1473
sba(iGeography
Landmark
p1474
(dp1475
g9
S'YUGOSLAVIA'
p1476
sg11
(iGeography
Coords
p1477
(dp1478
g14
F44.799999999999997
sg15
F20.466666666666665
sbsg16
S'Belgrade'
p1479
sg18
S'difficult'
p1480
sba(iGeography
Landmark
p1481
(dp1482
g9
S'ZAIRE'
p1483
sg11
(iGeography
Coords
p1484
(dp1485
g14
F-4.333333333333333
sg15
F15.300000000000001
sbsg16
S'Kinshasa'
p1486
sg18
S'difficult'
p1487
sba(iGeography
Landmark
p1488
(dp1489
g9
g1483
sg11
(iGeography
Coords
p1490
(dp1491
g14
F-0.43333333333333335
sg15
F15.233333333333333
sbsg16
S'Kisangani'
p1492
sg18
S'difficult'
p1493
sba(iGeography
Landmark
p1494
(dp1495
g9
S'ZIMBABWE'
p1496
sg11
(iGeography
Coords
p1497
(dp1498
g14
F-17.833333333333332
sg15
F31.050000000000001
sbsg16
S'Harare'
p1499
sg18
S'difficult'
p1500
sbas.